
fs_fat.kmod:     file format elf32-i386


Disassembly of section .text:

00000000 <_ZN8fs_fat32D1Ev>:
       0:	55                   	push   %ebp
       1:	89 e5                	mov    %esp,%ebp
       3:	83 ec 18             	sub    $0x18,%esp
       6:	a1 00 00 00 00       	mov    0x0,%eax
       b:	89 45 f4             	mov    %eax,-0xc(%ebp)
       e:	31 c0                	xor    %eax,%eax
      10:	8b 45 f4             	mov    -0xc(%ebp),%eax
      13:	33 05 00 00 00 00    	xor    0x0,%eax
      19:	75 02                	jne    1d <_ZN8fs_fat32D1Ev+0x1d>
      1b:	c9                   	leave  
      1c:	c3                   	ret    
      1d:	e8 fc ff ff ff       	call   1e <_ZN8fs_fat32D1Ev+0x1e>
      22:	66 90                	xchg   %ax,%ax

00000024 <_ZN8fs_fat3211lfnCheckSumEPh>:
      24:	55                   	push   %ebp
      25:	31 c9                	xor    %ecx,%ecx
      27:	89 e5                	mov    %esp,%ebp
      29:	53                   	push   %ebx
      2a:	83 ec 14             	sub    $0x14,%esp
      2d:	8b 55 0c             	mov    0xc(%ebp),%edx
      30:	a1 00 00 00 00       	mov    0x0,%eax
      35:	89 45 f4             	mov    %eax,-0xc(%ebp)
      38:	31 c0                	xor    %eax,%eax
      3a:	8d 5a 0b             	lea    0xb(%edx),%ebx
      3d:	eb 12                	jmp    51 <_ZN8fs_fat3211lfnCheckSumEPh+0x2d>
      3f:	90                   	nop
      40:	0f b6 c8             	movzbl %al,%ecx
      43:	89 c8                	mov    %ecx,%eax
      45:	83 e0 01             	and    $0x1,%eax
      48:	83 f8 01             	cmp    $0x1,%eax
      4b:	19 c0                	sbb    %eax,%eax
      4d:	f6 d0                	not    %al
      4f:	24 80                	and    $0x80,%al
      51:	02 02                	add    (%edx),%al
      53:	42                   	inc    %edx
      54:	d1 f9                	sar    %ecx
      56:	00 c8                	add    %cl,%al
      58:	39 da                	cmp    %ebx,%edx
      5a:	75 e4                	jne    40 <_ZN8fs_fat3211lfnCheckSumEPh+0x1c>
      5c:	8b 55 f4             	mov    -0xc(%ebp),%edx
      5f:	33 15 00 00 00 00    	xor    0x0,%edx
      65:	75 06                	jne    6d <_ZN8fs_fat3211lfnCheckSumEPh+0x49>
      67:	83 c4 14             	add    $0x14,%esp
      6a:	5b                   	pop    %ebx
      6b:	5d                   	pop    %ebp
      6c:	c3                   	ret    
      6d:	e8 fc ff ff ff       	call   6e <_ZN8fs_fat3211lfnCheckSumEPh+0x4a>
      72:	66 90                	xchg   %ax,%ax

00000074 <_ZN8fs_fat3217convert_timestampEtth>:
      74:	55                   	push   %ebp
      75:	89 e5                	mov    %esp,%ebp
      77:	56                   	push   %esi
      78:	53                   	push   %ebx
      79:	83 ec 10             	sub    $0x10,%esp
      7c:	0f b7 5d 0c          	movzwl 0xc(%ebp),%ebx
      80:	a1 00 00 00 00       	mov    0x0,%eax
      85:	89 45 f4             	mov    %eax,-0xc(%ebp)
      88:	31 c0                	xor    %eax,%eax
      8a:	0f b7 4d 10          	movzwl 0x10(%ebp),%ecx
      8e:	b8 00 a6 ce 12       	mov    $0x12cea600,%eax
      93:	0f b6 55 14          	movzbl 0x14(%ebp),%edx
      97:	85 db                	test   %ebx,%ebx
      99:	74 10                	je     ab <_ZN8fs_fat3217convert_timestampEtth+0x37>
      9b:	89 d8                	mov    %ebx,%eax
      9d:	83 e0 1f             	and    $0x1f,%eax
      a0:	69 c0 80 51 01 00    	imul   $0x15180,%eax,%eax
      a6:	05 00 a6 ce 12       	add    $0x12cea600,%eax
      ab:	85 c9                	test   %ecx,%ecx
      ad:	74 2c                	je     db <_ZN8fs_fat3217convert_timestampEtth+0x67>
      af:	89 cb                	mov    %ecx,%ebx
      b1:	89 ce                	mov    %ecx,%esi
      b3:	c1 eb 0b             	shr    $0xb,%ebx
      b6:	81 e1 e0 07 00 00    	and    $0x7e0,%ecx
      bc:	69 db 10 0e 00 00    	imul   $0xe10,%ebx,%ebx
      c2:	83 e6 1f             	and    $0x1f,%esi
      c5:	c1 f9 05             	sar    $0x5,%ecx
      c8:	8d 1c 73             	lea    (%ebx,%esi,2),%ebx
      cb:	8d 34 8d 00 00 00 00 	lea    0x0(,%ecx,4),%esi
      d2:	c1 e1 06             	shl    $0x6,%ecx
      d5:	29 f1                	sub    %esi,%ecx
      d7:	01 d9                	add    %ebx,%ecx
      d9:	01 c8                	add    %ecx,%eax
      db:	80 fa 64             	cmp    $0x64,%dl
      de:	83 d8 ff             	sbb    $0xffffffff,%eax
      e1:	8b 55 f4             	mov    -0xc(%ebp),%edx
      e4:	33 15 00 00 00 00    	xor    0x0,%edx
      ea:	75 07                	jne    f3 <_ZN8fs_fat3217convert_timestampEtth+0x7f>
      ec:	83 c4 10             	add    $0x10,%esp
      ef:	5b                   	pop    %ebx
      f0:	5e                   	pop    %esi
      f1:	5d                   	pop    %ebp
      f2:	c3                   	ret    
      f3:	e8 fc ff ff ff       	call   f4 <_ZN8fs_fat3217convert_timestampEtth+0x80>

000000f8 <_ZN8fs_fat3216processFATDirEntEP12fat_dirent_tjP12fs_directory.part.0>:
      f8:	55                   	push   %ebp
      f9:	89 e5                	mov    %esp,%ebp
      fb:	57                   	push   %edi
      fc:	56                   	push   %esi
      fd:	53                   	push   %ebx
      fe:	81 ec bc 06 00 00    	sub    $0x6bc,%esp
     104:	89 8d 70 f9 ff ff    	mov    %ecx,-0x690(%ebp)
     10a:	8b 4d 08             	mov    0x8(%ebp),%ecx
     10d:	89 8d 64 f9 ff ff    	mov    %ecx,-0x69c(%ebp)
     113:	8b 0d 00 00 00 00    	mov    0x0,%ecx
     119:	89 4d e4             	mov    %ecx,-0x1c(%ebp)
     11c:	31 c9                	xor    %ecx,%ecx
     11e:	8b 8d 70 f9 ff ff    	mov    -0x690(%ebp),%ecx
     124:	85 c9                	test   %ecx,%ecx
     126:	0f 84 b4 00 00 00    	je     1e0 <_ZN8fs_fat3216processFATDirEntEP12fat_dirent_tjP12fs_directory.part.0+0xe8>
     12c:	89 d3                	mov    %edx,%ebx
     12e:	31 d2                	xor    %edx,%edx
     130:	c6 85 60 f9 ff ff 00 	movb   $0x0,-0x6a0(%ebp)
     137:	31 f6                	xor    %esi,%esi
     139:	89 c7                	mov    %eax,%edi
     13b:	89 95 68 f9 ff ff    	mov    %edx,-0x698(%ebp)
     141:	c6 85 6c f9 ff ff 00 	movb   $0x0,-0x694(%ebp)
     148:	90                   	nop
     149:	8d b4 26 00 00 00 00 	lea    0x0(%esi,%eiz,1),%esi
     150:	0f b6 03             	movzbl (%ebx),%eax
     153:	84 c0                	test   %al,%al
     155:	0f 84 a5 00 00 00    	je     200 <_ZN8fs_fat3216processFATDirEntEP12fat_dirent_tjP12fs_directory.part.0+0x108>
     15b:	3c e5                	cmp    $0xe5,%al
     15d:	0f 84 9d 00 00 00    	je     200 <_ZN8fs_fat3216processFATDirEntEP12fat_dirent_tjP12fs_directory.part.0+0x108>
     163:	0f b6 53 0b          	movzbl 0xb(%ebx),%edx
     167:	89 d1                	mov    %edx,%ecx
     169:	83 e1 0f             	and    $0xf,%ecx
     16c:	83 f9 0f             	cmp    $0xf,%ecx
     16f:	0f 84 ab 00 00 00    	je     220 <_ZN8fs_fat3216processFATDirEntEP12fat_dirent_tjP12fs_directory.part.0+0x128>
     175:	f6 c2 10             	test   $0x10,%dl
     178:	0f 85 82 01 00 00    	jne    300 <_ZN8fs_fat3216processFATDirEntEP12fat_dirent_tjP12fs_directory.part.0+0x208>
     17e:	f6 c2 08             	test   $0x8,%dl
     181:	0f 84 b9 02 00 00    	je     440 <_ZN8fs_fat3216processFATDirEntEP12fat_dirent_tjP12fs_directory.part.0+0x348>
     187:	8b 57 0c             	mov    0xc(%edi),%edx
     18a:	31 c0                	xor    %eax,%eax
     18c:	85 d2                	test   %edx,%edx
     18e:	74 14                	je     1a4 <_ZN8fs_fat3216processFATDirEntEP12fat_dirent_tjP12fs_directory.part.0+0xac>
     190:	b9 10 00 00 00       	mov    $0x10,%ecx
     195:	89 4c 24 04          	mov    %ecx,0x4(%esp)
     199:	89 14 24             	mov    %edx,(%esp)
     19c:	e8 fc ff ff ff       	call   19d <_ZN8fs_fat3216processFATDirEntEP12fat_dirent_tjP12fs_directory.part.0+0xa5>
     1a1:	8b 47 0c             	mov    0xc(%edi),%eax
     1a4:	ba 0b 00 00 00       	mov    $0xb,%edx
     1a9:	89 54 24 08          	mov    %edx,0x8(%esp)
     1ad:	89 5c 24 04          	mov    %ebx,0x4(%esp)
     1b1:	89 04 24             	mov    %eax,(%esp)
     1b4:	e8 fc ff ff ff       	call   1b5 <_ZN8fs_fat3216processFATDirEntEP12fat_dirent_tjP12fs_directory.part.0+0xbd>
     1b9:	b8 0a 00 00 00       	mov    $0xa,%eax
     1be:	66 90                	xchg   %ax,%ax
     1c0:	8b 57 0c             	mov    0xc(%edi),%edx
     1c3:	01 c2                	add    %eax,%edx
     1c5:	80 3a 20             	cmpb   $0x20,(%edx)
     1c8:	75 06                	jne    1d0 <_ZN8fs_fat3216processFATDirEntEP12fat_dirent_tjP12fs_directory.part.0+0xd8>
     1ca:	48                   	dec    %eax
     1cb:	c6 02 00             	movb   $0x0,(%edx)
     1ce:	75 f0                	jne    1c0 <_ZN8fs_fat3216processFATDirEntEP12fat_dirent_tjP12fs_directory.part.0+0xc8>
     1d0:	46                   	inc    %esi
     1d1:	83 c3 20             	add    $0x20,%ebx
     1d4:	3b b5 70 f9 ff ff    	cmp    -0x690(%ebp),%esi
     1da:	0f 85 70 ff ff ff    	jne    150 <_ZN8fs_fat3216processFATDirEntEP12fat_dirent_tjP12fs_directory.part.0+0x58>
     1e0:	8b 45 e4             	mov    -0x1c(%ebp),%eax
     1e3:	33 05 00 00 00 00    	xor    0x0,%eax
     1e9:	0f 85 6a 05 00 00    	jne    759 <_ZN8fs_fat3216processFATDirEntEP12fat_dirent_tjP12fs_directory.part.0+0x661>
     1ef:	81 c4 bc 06 00 00    	add    $0x6bc,%esp
     1f5:	5b                   	pop    %ebx
     1f6:	5e                   	pop    %esi
     1f7:	5f                   	pop    %edi
     1f8:	5d                   	pop    %ebp
     1f9:	c3                   	ret    
     1fa:	8d b6 00 00 00 00    	lea    0x0(%esi),%esi
     200:	84 c0                	test   %al,%al
     202:	74 dc                	je     1e0 <_ZN8fs_fat3216processFATDirEntEP12fat_dirent_tjP12fs_directory.part.0+0xe8>
     204:	46                   	inc    %esi
     205:	83 c3 20             	add    $0x20,%ebx
     208:	3b b5 70 f9 ff ff    	cmp    -0x690(%ebp),%esi
     20e:	0f 85 3c ff ff ff    	jne    150 <_ZN8fs_fat3216processFATDirEntEP12fat_dirent_tjP12fs_directory.part.0+0x58>
     214:	eb ca                	jmp    1e0 <_ZN8fs_fat3216processFATDirEntEP12fat_dirent_tjP12fs_directory.part.0+0xe8>
     216:	8d 76 00             	lea    0x0(%esi),%esi
     219:	8d bc 27 00 00 00 00 	lea    0x0(%edi,%eiz,1),%edi
     220:	80 7b 0c 00          	cmpb   $0x0,0xc(%ebx)
     224:	75 aa                	jne    1d0 <_ZN8fs_fat3216processFATDirEntEP12fat_dirent_tjP12fs_directory.part.0+0xd8>
     226:	0f b6 c0             	movzbl %al,%eax
     229:	89 c1                	mov    %eax,%ecx
     22b:	83 e1 3f             	and    $0x3f,%ecx
     22e:	a8 40                	test   $0x40,%al
     230:	8d 51 ff             	lea    -0x1(%ecx),%edx
     233:	0f 44 8d 68 f9 ff ff 	cmove  -0x698(%ebp),%ecx
     23a:	8d 04 52             	lea    (%edx,%edx,2),%eax
     23d:	8d 04 82             	lea    (%edx,%eax,4),%eax
     240:	0f b7 53 01          	movzwl 0x1(%ebx),%edx
     244:	89 8d 68 f9 ff ff    	mov    %ecx,-0x698(%ebp)
     24a:	89 c1                	mov    %eax,%ecx
     24c:	01 c9                	add    %ecx,%ecx
     24e:	89 85 74 f9 ff ff    	mov    %eax,-0x68c(%ebp)
     254:	8d 45 e8             	lea    -0x18(%ebp),%eax
     257:	01 c8                	add    %ecx,%eax
     259:	66 89 90 96 f9 ff ff 	mov    %dx,-0x66a(%eax)
     260:	0f b7 53 03          	movzwl 0x3(%ebx),%edx
     264:	66 89 90 98 f9 ff ff 	mov    %dx,-0x668(%eax)
     26b:	0f b7 53 05          	movzwl 0x5(%ebx),%edx
     26f:	66 89 90 9a f9 ff ff 	mov    %dx,-0x666(%eax)
     276:	0f b7 53 07          	movzwl 0x7(%ebx),%edx
     27a:	66 89 90 9c f9 ff ff 	mov    %dx,-0x664(%eax)
     281:	0f b7 53 09          	movzwl 0x9(%ebx),%edx
     285:	66 89 90 9e f9 ff ff 	mov    %dx,-0x662(%eax)
     28c:	8d 95 7e f9 ff ff    	lea    -0x682(%ebp),%edx
     292:	31 c0                	xor    %eax,%eax
     294:	01 d1                	add    %edx,%ecx
     296:	8d 76 00             	lea    0x0(%esi),%esi
     299:	8d bc 27 00 00 00 00 	lea    0x0(%edi,%eiz,1),%edi
     2a0:	0f b7 54 43 0e       	movzwl 0xe(%ebx,%eax,2),%edx
     2a5:	66 89 54 41 0a       	mov    %dx,0xa(%ecx,%eax,2)
     2aa:	40                   	inc    %eax
     2ab:	83 f8 06             	cmp    $0x6,%eax
     2ae:	75 f0                	jne    2a0 <_ZN8fs_fat3216processFATDirEntEP12fat_dirent_tjP12fs_directory.part.0+0x1a8>
     2b0:	8b 8d 74 f9 ff ff    	mov    -0x68c(%ebp),%ecx
     2b6:	46                   	inc    %esi
     2b7:	0f b7 53 1c          	movzwl 0x1c(%ebx),%edx
     2bb:	c6 85 6c f9 ff ff 01 	movb   $0x1,-0x694(%ebp)
     2c2:	8d 44 4d e8          	lea    -0x18(%ebp,%ecx,2),%eax
     2c6:	66 89 90 ac f9 ff ff 	mov    %dx,-0x654(%eax)
     2cd:	0f b7 53 1e          	movzwl 0x1e(%ebx),%edx
     2d1:	66 89 90 ae f9 ff ff 	mov    %dx,-0x652(%eax)
     2d8:	0f b6 53 0d          	movzbl 0xd(%ebx),%edx
     2dc:	83 c3 20             	add    $0x20,%ebx
     2df:	3b b5 70 f9 ff ff    	cmp    -0x690(%ebp),%esi
     2e5:	88 95 60 f9 ff ff    	mov    %dl,-0x6a0(%ebp)
     2eb:	0f 85 5f fe ff ff    	jne    150 <_ZN8fs_fat3216processFATDirEntEP12fat_dirent_tjP12fs_directory.part.0+0x58>
     2f1:	e9 ea fe ff ff       	jmp    1e0 <_ZN8fs_fat3216processFATDirEntEP12fat_dirent_tjP12fs_directory.part.0+0xe8>
     2f6:	8d 76 00             	lea    0x0(%esi),%esi
     2f9:	8d bc 27 00 00 00 00 	lea    0x0(%edi,%eiz,1),%edi
     300:	c7 04 24 10 00 00 00 	movl   $0x10,(%esp)
     307:	e8 fc ff ff ff       	call   308 <_ZN8fs_fat3216processFATDirEntEP12fat_dirent_tjP12fs_directory.part.0+0x210>
     30c:	89 c2                	mov    %eax,%edx
     30e:	b8 10 00 00 00       	mov    $0x10,%eax
     313:	89 14 24             	mov    %edx,(%esp)
     316:	89 95 54 f9 ff ff    	mov    %edx,-0x6ac(%ebp)
     31c:	89 44 24 04          	mov    %eax,0x4(%esp)
     320:	e8 fc ff ff ff       	call   321 <_ZN8fs_fat3216processFATDirEntEP12fat_dirent_tjP12fs_directory.part.0+0x229>
     325:	8b 95 54 f9 ff ff    	mov    -0x6ac(%ebp),%edx
     32b:	31 c9                	xor    %ecx,%ecx
     32d:	8d 76 00             	lea    0x0(%esi),%esi
     330:	0f b6 04 0b          	movzbl (%ebx,%ecx,1),%eax
     334:	3c 20                	cmp    $0x20,%al
     336:	74 09                	je     341 <_ZN8fs_fat3216processFATDirEntEP12fat_dirent_tjP12fs_directory.part.0+0x249>
     338:	88 04 0a             	mov    %al,(%edx,%ecx,1)
     33b:	41                   	inc    %ecx
     33c:	83 f9 08             	cmp    $0x8,%ecx
     33f:	75 ef                	jne    330 <_ZN8fs_fat3216processFATDirEntEP12fat_dirent_tjP12fs_directory.part.0+0x238>
     341:	f6 43 0b 10          	testb  $0x10,0xb(%ebx)
     345:	75 05                	jne    34c <_ZN8fs_fat3216processFATDirEntEP12fat_dirent_tjP12fs_directory.part.0+0x254>
     347:	c6 04 0a 2e          	movb   $0x2e,(%edx,%ecx,1)
     34b:	41                   	inc    %ecx
     34c:	31 c0                	xor    %eax,%eax
     34e:	89 b5 74 f9 ff ff    	mov    %esi,-0x68c(%ebp)
     354:	89 c6                	mov    %eax,%esi
     356:	0f b6 44 33 08       	movzbl 0x8(%ebx,%esi,1),%eax
     35b:	3c 20                	cmp    $0x20,%al
     35d:	0f 84 3d 03 00 00    	je     6a0 <_ZN8fs_fat3216processFATDirEntEP12fat_dirent_tjP12fs_directory.part.0+0x5a8>
     363:	46                   	inc    %esi
     364:	88 04 0a             	mov    %al,(%edx,%ecx,1)
     367:	41                   	inc    %ecx
     368:	83 fe 03             	cmp    $0x3,%esi
     36b:	75 e9                	jne    356 <_ZN8fs_fat3216processFATDirEntEP12fat_dirent_tjP12fs_directory.part.0+0x25e>
     36d:	8b b5 74 f9 ff ff    	mov    -0x68c(%ebp),%esi
     373:	89 54 24 04          	mov    %edx,0x4(%esp)
     377:	89 95 54 f9 ff ff    	mov    %edx,-0x6ac(%ebp)
     37d:	c7 04 24 09 1f 00 00 	movl   $0x1f09,(%esp)
     384:	e8 fc ff ff ff       	call   385 <_ZN8fs_fat3216processFATDirEntEP12fat_dirent_tjP12fs_directory.part.0+0x28d>
     389:	8b 95 54 f9 ff ff    	mov    -0x6ac(%ebp),%edx
     38f:	85 c0                	test   %eax,%eax
     391:	0f 84 39 fe ff ff    	je     1d0 <_ZN8fs_fat3216processFATDirEntEP12fat_dirent_tjP12fs_directory.part.0+0xd8>
     397:	89 54 24 04          	mov    %edx,0x4(%esp)
     39b:	c7 04 24 0b 1f 00 00 	movl   $0x1f0b,(%esp)
     3a2:	e8 fc ff ff ff       	call   3a3 <_ZN8fs_fat3216processFATDirEntEP12fat_dirent_tjP12fs_directory.part.0+0x2ab>
     3a7:	8b 95 54 f9 ff ff    	mov    -0x6ac(%ebp),%edx
     3ad:	85 c0                	test   %eax,%eax
     3af:	0f 84 1b fe ff ff    	je     1d0 <_ZN8fs_fat3216processFATDirEntEP12fat_dirent_tjP12fs_directory.part.0+0xd8>
     3b5:	0f b6 43 0c          	movzbl 0xc(%ebx),%eax
     3b9:	31 c9                	xor    %ecx,%ecx
     3bb:	a8 18                	test   $0x18,%al
     3bd:	74 30                	je     3ef <_ZN8fs_fat3216processFATDirEntEP12fat_dirent_tjP12fs_directory.part.0+0x2f7>
     3bf:	89 b5 74 f9 ff ff    	mov    %esi,-0x68c(%ebp)
     3c5:	89 ce                	mov    %ecx,%esi
     3c7:	89 f6                	mov    %esi,%esi
     3c9:	8d bc 27 00 00 00 00 	lea    0x0(%edi,%eiz,1),%edi
     3d0:	0f b6 04 32          	movzbl (%edx,%esi,1),%eax
     3d4:	88 c1                	mov    %al,%cl
     3d6:	80 e9 41             	sub    $0x41,%cl
     3d9:	80 f9 19             	cmp    $0x19,%cl
     3dc:	77 02                	ja     3e0 <_ZN8fs_fat3216processFATDirEntEP12fat_dirent_tjP12fs_directory.part.0+0x2e8>
     3de:	04 20                	add    $0x20,%al
     3e0:	88 04 32             	mov    %al,(%edx,%esi,1)
     3e3:	46                   	inc    %esi
     3e4:	83 fe 0b             	cmp    $0xb,%esi
     3e7:	75 e7                	jne    3d0 <_ZN8fs_fat3216processFATDirEntEP12fat_dirent_tjP12fs_directory.part.0+0x2d8>
     3e9:	8b b5 74 f9 ff ff    	mov    -0x68c(%ebp),%esi
     3ef:	89 95 54 f9 ff ff    	mov    %edx,-0x6ac(%ebp)
     3f5:	c7 04 24 01 00 00 00 	movl   $0x1,(%esp)
     3fc:	e8 fc ff ff ff       	call   3fd <_ZN8fs_fat3216processFATDirEntEP12fat_dirent_tjP12fs_directory.part.0+0x305>
     401:	8b 95 54 f9 ff ff    	mov    -0x6ac(%ebp),%edx
     407:	8b 8d 64 f9 ff ff    	mov    -0x69c(%ebp),%ecx
     40d:	89 50 04             	mov    %edx,0x4(%eax)
     410:	8b 51 14             	mov    0x14(%ecx),%edx
     413:	89 50 30             	mov    %edx,0x30(%eax)
     416:	89 c2                	mov    %eax,%edx
     418:	89 44 24 04          	mov    %eax,0x4(%esp)
     41c:	8b 41 34             	mov    0x34(%ecx),%eax
     41f:	89 95 54 f9 ff ff    	mov    %edx,-0x6ac(%ebp)
     425:	89 04 24             	mov    %eax,(%esp)
     428:	e8 fc ff ff ff       	call   429 <_ZN8fs_fat3216processFATDirEntEP12fat_dirent_tjP12fs_directory.part.0+0x331>
     42d:	8b 95 54 f9 ff ff    	mov    -0x6ac(%ebp),%edx
     433:	e9 10 01 00 00       	jmp    548 <_ZN8fs_fat3216processFATDirEntEP12fat_dirent_tjP12fs_directory.part.0+0x450>
     438:	90                   	nop
     439:	8d b4 26 00 00 00 00 	lea    0x0(%esi,%eiz,1),%esi
     440:	8b 95 64 f9 ff ff    	mov    -0x69c(%ebp),%edx
     446:	89 14 24             	mov    %edx,(%esp)
     449:	e8 fc ff ff ff       	call   44a <_ZN8fs_fat3216processFATDirEntEP12fat_dirent_tjP12fs_directory.part.0+0x352>
     44e:	8b 4b 1c             	mov    0x1c(%ebx),%ecx
     451:	80 bd 6c f9 ff ff 00 	cmpb   $0x0,-0x694(%ebp)
     458:	89 85 74 f9 ff ff    	mov    %eax,-0x68c(%ebp)
     45e:	89 48 38             	mov    %ecx,0x38(%eax)
     461:	c7 40 3c 00 00 00 00 	movl   $0x0,0x3c(%eax)
     468:	0f 85 92 01 00 00    	jne    600 <_ZN8fs_fat3216processFATDirEntEP12fat_dirent_tjP12fs_directory.part.0+0x508>
     46e:	0f b6 4b 0c          	movzbl 0xc(%ebx),%ecx
     472:	f6 c1 08             	test   $0x8,%cl
     475:	89 8d 6c f9 ff ff    	mov    %ecx,-0x694(%ebp)
     47b:	74 1c                	je     499 <_ZN8fs_fat3216processFATDirEntEP12fat_dirent_tjP12fs_directory.part.0+0x3a1>
     47d:	31 c9                	xor    %ecx,%ecx
     47f:	90                   	nop
     480:	0f b6 04 0b          	movzbl (%ebx,%ecx,1),%eax
     484:	88 c2                	mov    %al,%dl
     486:	80 ea 41             	sub    $0x41,%dl
     489:	80 fa 19             	cmp    $0x19,%dl
     48c:	77 02                	ja     490 <_ZN8fs_fat3216processFATDirEntEP12fat_dirent_tjP12fs_directory.part.0+0x398>
     48e:	04 20                	add    $0x20,%al
     490:	88 04 0b             	mov    %al,(%ebx,%ecx,1)
     493:	41                   	inc    %ecx
     494:	83 f9 08             	cmp    $0x8,%ecx
     497:	75 e7                	jne    480 <_ZN8fs_fat3216processFATDirEntEP12fat_dirent_tjP12fs_directory.part.0+0x388>
     499:	f6 85 6c f9 ff ff 10 	testb  $0x10,-0x694(%ebp)
     4a0:	74 1d                	je     4bf <_ZN8fs_fat3216processFATDirEntEP12fat_dirent_tjP12fs_directory.part.0+0x3c7>
     4a2:	31 c9                	xor    %ecx,%ecx
     4a4:	0f b6 44 0b 08       	movzbl 0x8(%ebx,%ecx,1),%eax
     4a9:	88 c2                	mov    %al,%dl
     4ab:	80 ea 41             	sub    $0x41,%dl
     4ae:	80 fa 19             	cmp    $0x19,%dl
     4b1:	77 02                	ja     4b5 <_ZN8fs_fat3216processFATDirEntEP12fat_dirent_tjP12fs_directory.part.0+0x3bd>
     4b3:	04 20                	add    $0x20,%al
     4b5:	88 44 0b 08          	mov    %al,0x8(%ebx,%ecx,1)
     4b9:	41                   	inc    %ecx
     4ba:	83 f9 03             	cmp    $0x3,%ecx
     4bd:	75 e5                	jne    4a4 <_ZN8fs_fat3216processFATDirEntEP12fat_dirent_tjP12fs_directory.part.0+0x3ac>
     4bf:	c7 04 24 10 00 00 00 	movl   $0x10,(%esp)
     4c6:	e8 fc ff ff ff       	call   4c7 <_ZN8fs_fat3216processFATDirEntEP12fat_dirent_tjP12fs_directory.part.0+0x3cf>
     4cb:	89 c2                	mov    %eax,%edx
     4cd:	b8 10 00 00 00       	mov    $0x10,%eax
     4d2:	89 14 24             	mov    %edx,(%esp)
     4d5:	89 95 54 f9 ff ff    	mov    %edx,-0x6ac(%ebp)
     4db:	89 44 24 04          	mov    %eax,0x4(%esp)
     4df:	e8 fc ff ff ff       	call   4e0 <_ZN8fs_fat3216processFATDirEntEP12fat_dirent_tjP12fs_directory.part.0+0x3e8>
     4e4:	8b 95 54 f9 ff ff    	mov    -0x6ac(%ebp),%edx
     4ea:	31 c9                	xor    %ecx,%ecx
     4ec:	8d 74 26 00          	lea    0x0(%esi,%eiz,1),%esi
     4f0:	0f b6 04 0b          	movzbl (%ebx,%ecx,1),%eax
     4f4:	3c 20                	cmp    $0x20,%al
     4f6:	74 09                	je     501 <_ZN8fs_fat3216processFATDirEntEP12fat_dirent_tjP12fs_directory.part.0+0x409>
     4f8:	88 04 0a             	mov    %al,(%edx,%ecx,1)
     4fb:	41                   	inc    %ecx
     4fc:	83 f9 08             	cmp    $0x8,%ecx
     4ff:	75 ef                	jne    4f0 <_ZN8fs_fat3216processFATDirEntEP12fat_dirent_tjP12fs_directory.part.0+0x3f8>
     501:	f6 43 0b 10          	testb  $0x10,0xb(%ebx)
     505:	0f 84 e5 00 00 00    	je     5f0 <_ZN8fs_fat3216processFATDirEntEP12fat_dirent_tjP12fs_directory.part.0+0x4f8>
     50b:	31 c0                	xor    %eax,%eax
     50d:	89 b5 6c f9 ff ff    	mov    %esi,-0x694(%ebp)
     513:	89 c6                	mov    %eax,%esi
     515:	0f b6 44 33 08       	movzbl 0x8(%ebx,%esi,1),%eax
     51a:	3c 20                	cmp    $0x20,%al
     51c:	0f 84 8d 01 00 00    	je     6af <_ZN8fs_fat3216processFATDirEntEP12fat_dirent_tjP12fs_directory.part.0+0x5b7>
     522:	46                   	inc    %esi
     523:	88 04 0a             	mov    %al,(%edx,%ecx,1)
     526:	41                   	inc    %ecx
     527:	83 fe 03             	cmp    $0x3,%esi
     52a:	75 e9                	jne    515 <_ZN8fs_fat3216processFATDirEntEP12fat_dirent_tjP12fs_directory.part.0+0x41d>
     52c:	8b b5 6c f9 ff ff    	mov    -0x694(%ebp),%esi
     532:	8b 85 74 f9 ff ff    	mov    -0x68c(%ebp),%eax
     538:	89 50 04             	mov    %edx,0x4(%eax)
     53b:	8b 95 74 f9 ff ff    	mov    -0x68c(%ebp),%edx
     541:	c6 85 6c f9 ff ff 00 	movb   $0x0,-0x694(%ebp)
     548:	f6 43 0b 02          	testb  $0x2,0xb(%ebx)
     54c:	0f 95 42 0e          	setne  0xe(%edx)
     550:	f6 43 0b 04          	testb  $0x4,0xb(%ebx)
     554:	0f 95 42 0f          	setne  0xf(%edx)
     558:	46                   	inc    %esi
     559:	0f b6 43 0b          	movzbl 0xb(%ebx),%eax
     55d:	83 e0 01             	and    $0x1,%eax
     560:	88 42 10             	mov    %al,0x10(%edx)
     563:	31 c0                	xor    %eax,%eax
     565:	89 44 24 0c          	mov    %eax,0xc(%esp)
     569:	0f b7 43 16          	movzwl 0x16(%ebx),%eax
     56d:	89 44 24 08          	mov    %eax,0x8(%esp)
     571:	0f b7 43 18          	movzwl 0x18(%ebx),%eax
     575:	89 3c 24             	mov    %edi,(%esp)
     578:	89 95 54 f9 ff ff    	mov    %edx,-0x6ac(%ebp)
     57e:	89 44 24 04          	mov    %eax,0x4(%esp)
     582:	e8 fc ff ff ff       	call   583 <_ZN8fs_fat3216processFATDirEntEP12fat_dirent_tjP12fs_directory.part.0+0x48b>
     587:	8b 95 54 f9 ff ff    	mov    -0x6ac(%ebp),%edx
     58d:	31 c9                	xor    %ecx,%ecx
     58f:	89 42 1c             	mov    %eax,0x1c(%edx)
     592:	31 d2                	xor    %edx,%edx
     594:	89 54 24 0c          	mov    %edx,0xc(%esp)
     598:	89 4c 24 08          	mov    %ecx,0x8(%esp)
     59c:	0f b7 43 12          	movzwl 0x12(%ebx),%eax
     5a0:	89 3c 24             	mov    %edi,(%esp)
     5a3:	89 44 24 04          	mov    %eax,0x4(%esp)
     5a7:	e8 fc ff ff ff       	call   5a8 <_ZN8fs_fat3216processFATDirEntEP12fat_dirent_tjP12fs_directory.part.0+0x4b0>
     5ac:	8b 95 54 f9 ff ff    	mov    -0x6ac(%ebp),%edx
     5b2:	89 42 18             	mov    %eax,0x18(%edx)
     5b5:	0f b7 43 14          	movzwl 0x14(%ebx),%eax
     5b9:	0f b7 4b 1a          	movzwl 0x1a(%ebx),%ecx
     5bd:	83 c3 20             	add    $0x20,%ebx
     5c0:	c1 e0 10             	shl    $0x10,%eax
     5c3:	09 c8                	or     %ecx,%eax
     5c5:	89 c1                	mov    %eax,%ecx
     5c7:	c1 f9 1f             	sar    $0x1f,%ecx
     5ca:	3b b5 70 f9 ff ff    	cmp    -0x690(%ebp),%esi
     5d0:	89 42 24             	mov    %eax,0x24(%edx)
     5d3:	89 4a 28             	mov    %ecx,0x28(%edx)
     5d6:	0f 85 74 fb ff ff    	jne    150 <_ZN8fs_fat3216processFATDirEntEP12fat_dirent_tjP12fs_directory.part.0+0x58>
     5dc:	e9 ff fb ff ff       	jmp    1e0 <_ZN8fs_fat3216processFATDirEntEP12fat_dirent_tjP12fs_directory.part.0+0xe8>
     5e1:	eb 0d                	jmp    5f0 <_ZN8fs_fat3216processFATDirEntEP12fat_dirent_tjP12fs_directory.part.0+0x4f8>
     5e3:	90                   	nop
     5e4:	90                   	nop
     5e5:	90                   	nop
     5e6:	90                   	nop
     5e7:	90                   	nop
     5e8:	90                   	nop
     5e9:	90                   	nop
     5ea:	90                   	nop
     5eb:	90                   	nop
     5ec:	90                   	nop
     5ed:	90                   	nop
     5ee:	90                   	nop
     5ef:	90                   	nop
     5f0:	c6 04 0a 2e          	movb   $0x2e,(%edx,%ecx,1)
     5f4:	41                   	inc    %ecx
     5f5:	e9 11 ff ff ff       	jmp    50b <_ZN8fs_fat3216processFATDirEntEP12fat_dirent_tjP12fs_directory.part.0+0x413>
     5fa:	8d b6 00 00 00 00    	lea    0x0(%esi),%esi
     600:	8b 95 68 f9 ff ff    	mov    -0x698(%ebp),%edx
     606:	8d 04 52             	lea    (%edx,%edx,2),%eax
     609:	8d 44 82 01          	lea    0x1(%edx,%eax,4),%eax
     60d:	89 04 24             	mov    %eax,(%esp)
     610:	e8 fc ff ff ff       	call   611 <_ZN8fs_fat3216processFATDirEntEP12fat_dirent_tjP12fs_directory.part.0+0x519>
     615:	8d 4b 0b             	lea    0xb(%ebx),%ecx
     618:	89 da                	mov    %ebx,%edx
     61a:	89 8d 5c f9 ff ff    	mov    %ecx,-0x6a4(%ebp)
     620:	31 c9                	xor    %ecx,%ecx
     622:	89 b5 58 f9 ff ff    	mov    %esi,-0x6a8(%ebp)
     628:	89 de                	mov    %ebx,%esi
     62a:	8b 9d 5c f9 ff ff    	mov    -0x6a4(%ebp),%ebx
     630:	89 85 6c f9 ff ff    	mov    %eax,-0x694(%ebp)
     636:	31 c0                	xor    %eax,%eax
     638:	eb 17                	jmp    651 <_ZN8fs_fat3216processFATDirEntEP12fat_dirent_tjP12fs_directory.part.0+0x559>
     63a:	8d b6 00 00 00 00    	lea    0x0(%esi),%esi
     640:	0f b6 c8             	movzbl %al,%ecx
     643:	89 c8                	mov    %ecx,%eax
     645:	83 e0 01             	and    $0x1,%eax
     648:	83 f8 01             	cmp    $0x1,%eax
     64b:	19 c0                	sbb    %eax,%eax
     64d:	f6 d0                	not    %al
     64f:	24 80                	and    $0x80,%al
     651:	02 02                	add    (%edx),%al
     653:	42                   	inc    %edx
     654:	d1 f9                	sar    %ecx
     656:	00 c8                	add    %cl,%al
     658:	39 da                	cmp    %ebx,%edx
     65a:	75 e4                	jne    640 <_ZN8fs_fat3216processFATDirEntEP12fat_dirent_tjP12fs_directory.part.0+0x548>
     65c:	38 85 60 f9 ff ff    	cmp    %al,-0x6a0(%ebp)
     662:	89 f3                	mov    %esi,%ebx
     664:	8b b5 58 f9 ff ff    	mov    -0x6a8(%ebp),%esi
     66a:	74 52                	je     6be <_ZN8fs_fat3216processFATDirEntEP12fat_dirent_tjP12fs_directory.part.0+0x5c6>
     66c:	8b 8d 74 f9 ff ff    	mov    -0x68c(%ebp),%ecx
     672:	8b 41 04             	mov    0x4(%ecx),%eax
     675:	89 04 24             	mov    %eax,(%esp)
     678:	e8 fc ff ff ff       	call   679 <_ZN8fs_fat3216processFATDirEntEP12fat_dirent_tjP12fs_directory.part.0+0x581>
     67d:	8b 85 74 f9 ff ff    	mov    -0x68c(%ebp),%eax
     683:	8b 95 6c f9 ff ff    	mov    -0x694(%ebp),%edx
     689:	c6 85 60 f9 ff ff 00 	movb   $0x0,-0x6a0(%ebp)
     690:	89 50 04             	mov    %edx,0x4(%eax)
     693:	31 c0                	xor    %eax,%eax
     695:	89 85 68 f9 ff ff    	mov    %eax,-0x698(%ebp)
     69b:	e9 9b fe ff ff       	jmp    53b <_ZN8fs_fat3216processFATDirEntEP12fat_dirent_tjP12fs_directory.part.0+0x443>
     6a0:	8b b5 74 f9 ff ff    	mov    -0x68c(%ebp),%esi
     6a6:	c6 04 0a 00          	movb   $0x0,(%edx,%ecx,1)
     6aa:	e9 c4 fc ff ff       	jmp    373 <_ZN8fs_fat3216processFATDirEntEP12fat_dirent_tjP12fs_directory.part.0+0x27b>
     6af:	8b b5 6c f9 ff ff    	mov    -0x694(%ebp),%esi
     6b5:	c6 04 0a 00          	movb   $0x0,(%edx,%ecx,1)
     6b9:	e9 74 fe ff ff       	jmp    532 <_ZN8fs_fat3216processFATDirEntEP12fat_dirent_tjP12fs_directory.part.0+0x43a>
     6be:	8b 85 68 f9 ff ff    	mov    -0x698(%ebp),%eax
     6c4:	85 c0                	test   %eax,%eax
     6c6:	74 a4                	je     66c <_ZN8fs_fat3216processFATDirEntEP12fat_dirent_tjP12fs_directory.part.0+0x574>
     6c8:	89 9d 58 f9 ff ff    	mov    %ebx,-0x6a8(%ebp)
     6ce:	8b 9d 6c f9 ff ff    	mov    -0x694(%ebp),%ebx
     6d4:	31 c0                	xor    %eax,%eax
     6d6:	89 85 60 f9 ff ff    	mov    %eax,-0x6a0(%ebp)
     6dc:	8d 8d 7e f9 ff ff    	lea    -0x682(%ebp),%ecx
     6e2:	31 c0                	xor    %eax,%eax
     6e4:	89 b5 5c f9 ff ff    	mov    %esi,-0x6a4(%ebp)
     6ea:	31 d2                	xor    %edx,%edx
     6ec:	89 c6                	mov    %eax,%esi
     6ee:	0f b7 04 51          	movzwl (%ecx,%edx,2),%eax
     6f2:	85 c0                	test   %eax,%eax
     6f4:	74 52                	je     748 <_ZN8fs_fat3216processFATDirEntEP12fat_dirent_tjP12fs_directory.part.0+0x650>
     6f6:	42                   	inc    %edx
     6f7:	88 04 33             	mov    %al,(%ebx,%esi,1)
     6fa:	46                   	inc    %esi
     6fb:	83 fa 05             	cmp    $0x5,%edx
     6fe:	75 ee                	jne    6ee <_ZN8fs_fat3216processFATDirEntEP12fat_dirent_tjP12fs_directory.part.0+0x5f6>
     700:	31 d2                	xor    %edx,%edx
     702:	0f b7 44 51 0a       	movzwl 0xa(%ecx,%edx,2),%eax
     707:	85 c0                	test   %eax,%eax
     709:	74 3d                	je     748 <_ZN8fs_fat3216processFATDirEntEP12fat_dirent_tjP12fs_directory.part.0+0x650>
     70b:	42                   	inc    %edx
     70c:	88 04 33             	mov    %al,(%ebx,%esi,1)
     70f:	46                   	inc    %esi
     710:	83 fa 06             	cmp    $0x6,%edx
     713:	75 ed                	jne    702 <_ZN8fs_fat3216processFATDirEntEP12fat_dirent_tjP12fs_directory.part.0+0x60a>
     715:	0f b7 51 16          	movzwl 0x16(%ecx),%edx
     719:	89 f0                	mov    %esi,%eax
     71b:	85 d2                	test   %edx,%edx
     71d:	74 29                	je     748 <_ZN8fs_fat3216processFATDirEntEP12fat_dirent_tjP12fs_directory.part.0+0x650>
     71f:	88 14 33             	mov    %dl,(%ebx,%esi,1)
     722:	0f b7 51 18          	movzwl 0x18(%ecx),%edx
     726:	85 d2                	test   %edx,%edx
     728:	74 1e                	je     748 <_ZN8fs_fat3216processFATDirEntEP12fat_dirent_tjP12fs_directory.part.0+0x650>
     72a:	ff 85 60 f9 ff ff    	incl   -0x6a0(%ebp)
     730:	83 c0 02             	add    $0x2,%eax
     733:	83 c1 1a             	add    $0x1a,%ecx
     736:	88 54 33 01          	mov    %dl,0x1(%ebx,%esi,1)
     73a:	8b 95 68 f9 ff ff    	mov    -0x698(%ebp),%edx
     740:	39 95 60 f9 ff ff    	cmp    %edx,-0x6a0(%ebp)
     746:	75 a2                	jne    6ea <_ZN8fs_fat3216processFATDirEntEP12fat_dirent_tjP12fs_directory.part.0+0x5f2>
     748:	8b b5 5c f9 ff ff    	mov    -0x6a4(%ebp),%esi
     74e:	8b 9d 58 f9 ff ff    	mov    -0x6a8(%ebp),%ebx
     754:	e9 13 ff ff ff       	jmp    66c <_ZN8fs_fat3216processFATDirEntEP12fat_dirent_tjP12fs_directory.part.0+0x574>
     759:	e8 fc ff ff ff       	call   75a <_ZN8fs_fat3216processFATDirEntEP12fat_dirent_tjP12fs_directory.part.0+0x662>
     75e:	66 90                	xchg   %ax,%ax

00000760 <_ZN8fs_fat3216processFATDirEntEP12fat_dirent_tjP12fs_directory>:
     760:	55                   	push   %ebp
     761:	89 e5                	mov    %esp,%ebp
     763:	83 ec 38             	sub    $0x38,%esp
     766:	89 5d f8             	mov    %ebx,-0x8(%ebp)
     769:	8b 5d 14             	mov    0x14(%ebp),%ebx
     76c:	89 75 fc             	mov    %esi,-0x4(%ebp)
     76f:	8b 45 08             	mov    0x8(%ebp),%eax
     772:	8b 35 00 00 00 00    	mov    0x0,%esi
     778:	89 75 f4             	mov    %esi,-0xc(%ebp)
     77b:	31 f6                	xor    %esi,%esi
     77d:	8b 55 0c             	mov    0xc(%ebp),%edx
     780:	8b 4d 10             	mov    0x10(%ebp),%ecx
     783:	85 db                	test   %ebx,%ebx
     785:	0f 84 95 00 00 00    	je     820 <_ZN8fs_fat3216processFATDirEntEP12fat_dirent_tjP12fs_directory+0xc0>
     78b:	85 d2                	test   %edx,%edx
     78d:	74 51                	je     7e0 <_ZN8fs_fat3216processFATDirEntEP12fat_dirent_tjP12fs_directory+0x80>
     78f:	85 c9                	test   %ecx,%ecx
     791:	74 2d                	je     7c0 <_ZN8fs_fat3216processFATDirEntEP12fat_dirent_tjP12fs_directory+0x60>
     793:	8b 75 f4             	mov    -0xc(%ebp),%esi
     796:	33 35 00 00 00 00    	xor    0x0,%esi
     79c:	0f 85 b3 00 00 00    	jne    855 <_ZN8fs_fat3216processFATDirEntEP12fat_dirent_tjP12fs_directory+0xf5>
     7a2:	89 5d 08             	mov    %ebx,0x8(%ebp)
     7a5:	8b 75 fc             	mov    -0x4(%ebp),%esi
     7a8:	8b 5d f8             	mov    -0x8(%ebp),%ebx
     7ab:	89 ec                	mov    %ebp,%esp
     7ad:	5d                   	pop    %ebp
     7ae:	e9 45 f9 ff ff       	jmp    f8 <_ZN8fs_fat3216processFATDirEntEP12fat_dirent_tjP12fs_directory.part.0>
     7b3:	8d b6 00 00 00 00    	lea    0x0(%esi),%esi
     7b9:	8d bc 27 00 00 00 00 	lea    0x0(%edi,%eiz,1),%edi
     7c0:	8b 45 f4             	mov    -0xc(%ebp),%eax
     7c3:	33 05 00 00 00 00    	xor    0x0,%eax
     7c9:	0f 85 86 00 00 00    	jne    855 <_ZN8fs_fat3216processFATDirEntEP12fat_dirent_tjP12fs_directory+0xf5>
     7cf:	8b 5d f8             	mov    -0x8(%ebp),%ebx
     7d2:	8b 75 fc             	mov    -0x4(%ebp),%esi
     7d5:	89 ec                	mov    %ebp,%esp
     7d7:	5d                   	pop    %ebp
     7d8:	c3                   	ret    
     7d9:	8d b4 26 00 00 00 00 	lea    0x0(%esi,%eiz,1),%esi
     7e0:	be 1d 1f 00 00       	mov    $0x1f1d,%esi
     7e5:	89 74 24 08          	mov    %esi,0x8(%esp)
     7e9:	be 6b 01 00 00       	mov    $0x16b,%esi
     7ee:	89 45 e4             	mov    %eax,-0x1c(%ebp)
     7f1:	89 55 e0             	mov    %edx,-0x20(%ebp)
     7f4:	89 4d dc             	mov    %ecx,-0x24(%ebp)
     7f7:	89 74 24 04          	mov    %esi,0x4(%esp)
     7fb:	c7 04 24 13 1f 00 00 	movl   $0x1f13,(%esp)
     802:	e8 fc ff ff ff       	call   803 <_ZN8fs_fat3216processFATDirEntEP12fat_dirent_tjP12fs_directory+0xa3>
     807:	8b 4d dc             	mov    -0x24(%ebp),%ecx
     80a:	8b 55 e0             	mov    -0x20(%ebp),%edx
     80d:	8b 45 e4             	mov    -0x1c(%ebp),%eax
     810:	e9 7a ff ff ff       	jmp    78f <_ZN8fs_fat3216processFATDirEntEP12fat_dirent_tjP12fs_directory+0x2f>
     815:	8d 74 26 00          	lea    0x0(%esi,%eiz,1),%esi
     819:	8d bc 27 00 00 00 00 	lea    0x0(%edi,%eiz,1),%edi
     820:	be 0e 1f 00 00       	mov    $0x1f0e,%esi
     825:	89 74 24 08          	mov    %esi,0x8(%esp)
     829:	be 6a 01 00 00       	mov    $0x16a,%esi
     82e:	89 45 e4             	mov    %eax,-0x1c(%ebp)
     831:	89 55 e0             	mov    %edx,-0x20(%ebp)
     834:	89 4d dc             	mov    %ecx,-0x24(%ebp)
     837:	89 74 24 04          	mov    %esi,0x4(%esp)
     83b:	c7 04 24 13 1f 00 00 	movl   $0x1f13,(%esp)
     842:	e8 fc ff ff ff       	call   843 <_ZN8fs_fat3216processFATDirEntEP12fat_dirent_tjP12fs_directory+0xe3>
     847:	8b 4d dc             	mov    -0x24(%ebp),%ecx
     84a:	8b 55 e0             	mov    -0x20(%ebp),%edx
     84d:	8b 45 e4             	mov    -0x1c(%ebp),%eax
     850:	e9 36 ff ff ff       	jmp    78b <_ZN8fs_fat3216processFATDirEntEP12fat_dirent_tjP12fs_directory+0x2b>
     855:	e8 fc ff ff ff       	call   856 <_ZN8fs_fat3216processFATDirEntEP12fat_dirent_tjP12fs_directory+0xf6>
     85a:	66 90                	xchg   %ax,%ax

0000085c <_ZN8fs_fat3224fatEntryOffsetForClusterEj>:
     85c:	55                   	push   %ebp
     85d:	89 e5                	mov    %esp,%ebp
     85f:	83 ec 18             	sub    $0x18,%esp
     862:	89 5d f8             	mov    %ebx,-0x8(%ebp)
     865:	8b 5d 0c             	mov    0xc(%ebp),%ebx
     868:	89 75 fc             	mov    %esi,-0x4(%ebp)
     86b:	8b 45 10             	mov    0x10(%ebp),%eax
     86e:	8b 15 00 00 00 00    	mov    0x0,%edx
     874:	89 55 f4             	mov    %edx,-0xc(%ebp)
     877:	31 d2                	xor    %edx,%edx
     879:	31 d2                	xor    %edx,%edx
     87b:	8b 4d 08             	mov    0x8(%ebp),%ecx
     87e:	8b b3 84 02 00 00    	mov    0x284(%ebx),%esi
     884:	0f b7 5b 26          	movzwl 0x26(%ebx),%ebx
     888:	c1 ee 02             	shr    $0x2,%esi
     88b:	f7 f6                	div    %esi
     88d:	01 d8                	add    %ebx,%eax
     88f:	89 51 04             	mov    %edx,0x4(%ecx)
     892:	8b 55 f4             	mov    -0xc(%ebp),%edx
     895:	33 15 00 00 00 00    	xor    0x0,%edx
     89b:	89 01                	mov    %eax,(%ecx)
     89d:	89 c8                	mov    %ecx,%eax
     89f:	75 0c                	jne    8ad <_ZN8fs_fat3224fatEntryOffsetForClusterEj+0x51>
     8a1:	8b 5d f8             	mov    -0x8(%ebp),%ebx
     8a4:	8b 75 fc             	mov    -0x4(%ebp),%esi
     8a7:	89 ec                	mov    %ebp,%esp
     8a9:	5d                   	pop    %ebp
     8aa:	c2 04 00             	ret    $0x4
     8ad:	e8 fc ff ff ff       	call   8ae <_ZN8fs_fat3224fatEntryOffsetForClusterEj+0x52>
     8b2:	66 90                	xchg   %ax,%ax

000008b4 <_ZN8fs_fat3222clusterChainForClusterEj>:
     8b4:	55                   	push   %ebp
     8b5:	89 e5                	mov    %esp,%ebp
     8b7:	57                   	push   %edi
     8b8:	56                   	push   %esi
     8b9:	53                   	push   %ebx
     8ba:	83 ec 4c             	sub    $0x4c,%esp
     8bd:	8b 7d 0c             	mov    0xc(%ebp),%edi
     8c0:	a1 00 00 00 00       	mov    0x0,%eax
     8c5:	89 45 e4             	mov    %eax,-0x1c(%ebp)
     8c8:	31 c0                	xor    %eax,%eax
     8ca:	8b 5d 08             	mov    0x8(%ebp),%ebx
     8cd:	c7 04 24 80 00 00 00 	movl   $0x80,(%esp)
     8d4:	e8 fc ff ff ff       	call   8d5 <_ZN8fs_fat3222clusterChainForClusterEj+0x21>
     8d9:	85 ff                	test   %edi,%edi
     8db:	89 45 d0             	mov    %eax,-0x30(%ebp)
     8de:	0f 84 ec 00 00 00    	je     9d0 <_ZN8fs_fat3222clusterChainForClusterEj+0x11c>
     8e4:	81 ff f8 ff ff 0f    	cmp    $0xffffff8,%edi
     8ea:	89 38                	mov    %edi,(%eax)
     8ec:	0f 84 be 00 00 00    	je     9b0 <_ZN8fs_fat3222clusterChainForClusterEj+0xfc>
     8f2:	be 01 00 00 00       	mov    $0x1,%esi
     8f7:	c7 45 cc 20 00 00 00 	movl   $0x20,-0x34(%ebp)
     8fe:	eb 13                	jmp    913 <_ZN8fs_fat3222clusterChainForClusterEj+0x5f>
     900:	8b 45 d0             	mov    -0x30(%ebp),%eax
     903:	89 3c b0             	mov    %edi,(%eax,%esi,4)
     906:	46                   	inc    %esi
     907:	81 ff f8 ff ff 0f    	cmp    $0xffffff8,%edi
     90d:	0f 84 9d 00 00 00    	je     9b0 <_ZN8fs_fat3222clusterChainForClusterEj+0xfc>
     913:	8b 8b 84 02 00 00    	mov    0x284(%ebx),%ecx
     919:	89 f8                	mov    %edi,%eax
     91b:	31 d2                	xor    %edx,%edx
     91d:	c1 e9 02             	shr    $0x2,%ecx
     920:	f7 f1                	div    %ecx
     922:	89 d7                	mov    %edx,%edi
     924:	0f b7 53 26          	movzwl 0x26(%ebx),%edx
     928:	01 c2                	add    %eax,%edx
     92a:	8d 45 e0             	lea    -0x20(%ebp),%eax
     92d:	89 44 24 10          	mov    %eax,0x10(%esp)
     931:	8b 83 88 02 00 00    	mov    0x288(%ebx),%eax
     937:	89 55 d4             	mov    %edx,-0x2c(%ebp)
     93a:	89 44 24 0c          	mov    %eax,0xc(%esp)
     93e:	0f b6 43 25          	movzbl 0x25(%ebx),%eax
     942:	89 54 24 04          	mov    %edx,0x4(%esp)
     946:	89 1c 24             	mov    %ebx,(%esp)
     949:	89 44 24 08          	mov    %eax,0x8(%esp)
     94d:	e8 fc ff ff ff       	call   94e <_ZN8fs_fat3222clusterChainForClusterEj+0x9a>
     952:	85 c0                	test   %eax,%eax
     954:	0f 84 96 00 00 00    	je     9f0 <_ZN8fs_fat3222clusterChainForClusterEj+0x13c>
     95a:	8b 83 88 02 00 00    	mov    0x288(%ebx),%eax
     960:	ba f8 ff ff 0f       	mov    $0xffffff8,%edx
     965:	8d 3c b8             	lea    (%eax,%edi,4),%edi
     968:	8b 3f                	mov    (%edi),%edi
     96a:	81 ff f8 ff ff 0f    	cmp    $0xffffff8,%edi
     970:	0f 43 fa             	cmovae %edx,%edi
     973:	3b 75 cc             	cmp    -0x34(%ebp),%esi
     976:	75 88                	jne    900 <_ZN8fs_fat3222clusterChainForClusterEj+0x4c>
     978:	8d 56 20             	lea    0x20(%esi),%edx
     97b:	89 d0                	mov    %edx,%eax
     97d:	c1 e0 02             	shl    $0x2,%eax
     980:	89 44 24 04          	mov    %eax,0x4(%esp)
     984:	8b 45 d0             	mov    -0x30(%ebp),%eax
     987:	89 55 cc             	mov    %edx,-0x34(%ebp)
     98a:	89 04 24             	mov    %eax,(%esp)
     98d:	e8 fc ff ff ff       	call   98e <_ZN8fs_fat3222clusterChainForClusterEj+0xda>
     992:	89 45 d0             	mov    %eax,-0x30(%ebp)
     995:	8b 45 d0             	mov    -0x30(%ebp),%eax
     998:	89 3c b0             	mov    %edi,(%eax,%esi,4)
     99b:	46                   	inc    %esi
     99c:	81 ff f8 ff ff 0f    	cmp    $0xffffff8,%edi
     9a2:	0f 85 6b ff ff ff    	jne    913 <_ZN8fs_fat3222clusterChainForClusterEj+0x5f>
     9a8:	90                   	nop
     9a9:	8d b4 26 00 00 00 00 	lea    0x0(%esi,%eiz,1),%esi
     9b0:	8b 55 e4             	mov    -0x1c(%ebp),%edx
     9b3:	33 15 00 00 00 00    	xor    0x0,%edx
     9b9:	8b 45 d0             	mov    -0x30(%ebp),%eax
     9bc:	75 62                	jne    a20 <_ZN8fs_fat3222clusterChainForClusterEj+0x16c>
     9be:	83 c4 4c             	add    $0x4c,%esp
     9c1:	5b                   	pop    %ebx
     9c2:	5e                   	pop    %esi
     9c3:	5f                   	pop    %edi
     9c4:	5d                   	pop    %ebp
     9c5:	c3                   	ret    
     9c6:	8d 76 00             	lea    0x0(%esi),%esi
     9c9:	8d bc 27 00 00 00 00 	lea    0x0(%edi,%eiz,1),%edi
     9d0:	8b 45 d0             	mov    -0x30(%ebp),%eax
     9d3:	bf 02 00 00 00       	mov    $0x2,%edi
     9d8:	c7 00 02 00 00 00    	movl   $0x2,(%eax)
     9de:	e9 0f ff ff ff       	jmp    8f2 <_ZN8fs_fat3222clusterChainForClusterEj+0x3e>
     9e3:	8d b6 00 00 00 00    	lea    0x0(%esi),%esi
     9e9:	8d bc 27 00 00 00 00 	lea    0x0(%edi,%eiz,1),%edi
     9f0:	8b 7d d4             	mov    -0x2c(%ebp),%edi
     9f3:	c7 04 24 04 00 00 00 	movl   $0x4,(%esp)
     9fa:	89 7c 24 08          	mov    %edi,0x8(%esp)
     9fe:	bf 84 1f 00 00       	mov    $0x1f84,%edi
     a03:	89 7c 24 04          	mov    %edi,0x4(%esp)
     a07:	e8 fc ff ff ff       	call   a08 <_ZN8fs_fat3222clusterChainForClusterEj+0x154>
     a0c:	8b 45 d0             	mov    -0x30(%ebp),%eax
     a0f:	89 04 24             	mov    %eax,(%esp)
     a12:	e8 fc ff ff ff       	call   a13 <_ZN8fs_fat3222clusterChainForClusterEj+0x15f>
     a17:	c7 45 d0 00 00 00 00 	movl   $0x0,-0x30(%ebp)
     a1e:	eb 90                	jmp    9b0 <_ZN8fs_fat3222clusterChainForClusterEj+0xfc>
     a20:	e8 fc ff ff ff       	call   a21 <_ZN8fs_fat3222clusterChainForClusterEj+0x16d>
     a25:	90                   	nop
     a26:	66 90                	xchg   %ax,%ax

00000a28 <_ZN8fs_fat3211readClusterEjPvPj>:
     a28:	55                   	push   %ebp
     a29:	89 e5                	mov    %esp,%ebp
     a2b:	53                   	push   %ebx
     a2c:	83 ec 34             	sub    $0x34,%esp
     a2f:	8b 55 08             	mov    0x8(%ebp),%edx
     a32:	a1 00 00 00 00       	mov    0x0,%eax
     a37:	89 45 f4             	mov    %eax,-0xc(%ebp)
     a3a:	31 c0                	xor    %eax,%eax
     a3c:	8b 45 14             	mov    0x14(%ebp),%eax
     a3f:	8b 5d 10             	mov    0x10(%ebp),%ebx
     a42:	0f b6 4a 25          	movzbl 0x25(%edx),%ecx
     a46:	89 44 24 10          	mov    %eax,0x10(%esp)
     a4a:	8b 45 0c             	mov    0xc(%ebp),%eax
     a4d:	89 5c 24 0c          	mov    %ebx,0xc(%esp)
     a51:	89 4c 24 08          	mov    %ecx,0x8(%esp)
     a55:	83 e8 02             	sub    $0x2,%eax
     a58:	0f af c1             	imul   %ecx,%eax
     a5b:	8b 8a 80 02 00 00    	mov    0x280(%edx),%ecx
     a61:	89 14 24             	mov    %edx,(%esp)
     a64:	01 c8                	add    %ecx,%eax
     a66:	89 44 24 04          	mov    %eax,0x4(%esp)
     a6a:	e8 fc ff ff ff       	call   a6b <_ZN8fs_fat3211readClusterEjPvPj+0x43>
     a6f:	85 c0                	test   %eax,%eax
     a71:	b8 00 00 00 00       	mov    $0x0,%eax
     a76:	0f 44 d8             	cmove  %eax,%ebx
     a79:	8b 55 f4             	mov    -0xc(%ebp),%edx
     a7c:	33 15 00 00 00 00    	xor    0x0,%edx
     a82:	89 d8                	mov    %ebx,%eax
     a84:	75 06                	jne    a8c <_ZN8fs_fat3211readClusterEjPvPj+0x64>
     a86:	83 c4 34             	add    $0x34,%esp
     a89:	5b                   	pop    %ebx
     a8a:	5d                   	pop    %ebp
     a8b:	c3                   	ret    
     a8c:	e8 fc ff ff ff       	call   a8d <_ZN8fs_fat3211readClusterEjPvPj+0x65>
     a91:	90                   	nop
     a92:	66 90                	xchg   %ax,%ax

00000a94 <_ZN8fs_fat3213read_dir_fileEP12fs_directoryPcPj>:
     a94:	55                   	push   %ebp
     a95:	89 e5                	mov    %esp,%ebp
     a97:	57                   	push   %edi
     a98:	56                   	push   %esi
     a99:	53                   	push   %ebx
     a9a:	83 ec 3c             	sub    $0x3c,%esp
     a9d:	8b 5d 10             	mov    0x10(%ebp),%ebx
     aa0:	8b 55 0c             	mov    0xc(%ebp),%edx
     aa3:	a1 00 00 00 00       	mov    0x0,%eax
     aa8:	89 45 e4             	mov    %eax,-0x1c(%ebp)
     aab:	31 c0                	xor    %eax,%eax
     aad:	8b 7d 08             	mov    0x8(%ebp),%edi
     ab0:	89 5d d4             	mov    %ebx,-0x2c(%ebp)
     ab3:	8b 5d 14             	mov    0x14(%ebp),%ebx
     ab6:	8b 42 34             	mov    0x34(%edx),%eax
     ab9:	89 5d d0             	mov    %ebx,-0x30(%ebp)
     abc:	8b 58 08             	mov    0x8(%eax),%ebx
     abf:	85 db                	test   %ebx,%ebx
     ac1:	0f 84 39 01 00 00    	je     c00 <_ZN8fs_fat3213read_dir_fileEP12fs_directoryPcPj+0x16c>
     ac7:	89 7d cc             	mov    %edi,-0x34(%ebp)
     aca:	31 db                	xor    %ebx,%ebx
     acc:	89 d7                	mov    %edx,%edi
     ace:	eb 0d                	jmp    add <_ZN8fs_fat3213read_dir_fileEP12fs_directoryPcPj+0x49>
     ad0:	8b 47 34             	mov    0x34(%edi),%eax
     ad3:	43                   	inc    %ebx
     ad4:	39 58 08             	cmp    %ebx,0x8(%eax)
     ad7:	0f 86 23 01 00 00    	jbe    c00 <_ZN8fs_fat3213read_dir_fileEP12fs_directoryPcPj+0x16c>
     add:	89 5c 24 04          	mov    %ebx,0x4(%esp)
     ae1:	89 04 24             	mov    %eax,(%esp)
     ae4:	e8 fc ff ff ff       	call   ae5 <_ZN8fs_fat3213read_dir_fileEP12fs_directoryPcPj+0x51>
     ae9:	81 38 45 52 49 44    	cmpl   $0x44495245,(%eax)
     aef:	89 c6                	mov    %eax,%esi
     af1:	75 dd                	jne    ad0 <_ZN8fs_fat3213read_dir_fileEP12fs_directoryPcPj+0x3c>
     af3:	8b 40 04             	mov    0x4(%eax),%eax
     af6:	8b 55 d4             	mov    -0x2c(%ebp),%edx
     af9:	89 44 24 04          	mov    %eax,0x4(%esp)
     afd:	89 14 24             	mov    %edx,(%esp)
     b00:	e8 fc ff ff ff       	call   b01 <_ZN8fs_fat3213read_dir_fileEP12fs_directoryPcPj+0x6d>
     b05:	85 c0                	test   %eax,%eax
     b07:	75 c7                	jne    ad0 <_ZN8fs_fat3213read_dir_fileEP12fs_directoryPcPj+0x3c>
     b09:	8b 46 24             	mov    0x24(%esi),%eax
     b0c:	8b 7d cc             	mov    -0x34(%ebp),%edi
     b0f:	25 ff ff ff 0f       	and    $0xfffffff,%eax
     b14:	89 44 24 04          	mov    %eax,0x4(%esp)
     b18:	89 3c 24             	mov    %edi,(%esp)
     b1b:	e8 fc ff ff ff       	call   b1c <_ZN8fs_fat3213read_dir_fileEP12fs_directoryPcPj+0x88>
     b20:	c7 45 e0 00 00 00 00 	movl   $0x0,-0x20(%ebp)
     b27:	89 c2                	mov    %eax,%edx
     b29:	31 c0                	xor    %eax,%eax
     b2b:	81 3a f8 ff ff 0f    	cmpl   $0xffffff8,(%edx)
     b31:	74 17                	je     b4a <_ZN8fs_fat3213read_dir_fileEP12fs_directoryPcPj+0xb6>
     b33:	8d b6 00 00 00 00    	lea    0x0(%esi),%esi
     b39:	8d bc 27 00 00 00 00 	lea    0x0(%edi,%eiz,1),%edi
     b40:	40                   	inc    %eax
     b41:	81 3c 82 f8 ff ff 0f 	cmpl   $0xffffff8,(%edx,%eax,4)
     b48:	75 f6                	jne    b40 <_ZN8fs_fat3213read_dir_fileEP12fs_directoryPcPj+0xac>
     b4a:	8b 8f 84 02 00 00    	mov    0x284(%edi),%ecx
     b50:	8b 5d d0             	mov    -0x30(%ebp),%ebx
     b53:	0f af c1             	imul   %ecx,%eax
     b56:	89 c1                	mov    %eax,%ecx
     b58:	c1 e9 05             	shr    $0x5,%ecx
     b5b:	89 0b                	mov    %ecx,(%ebx)
     b5d:	89 55 c8             	mov    %edx,-0x38(%ebp)
     b60:	89 04 24             	mov    %eax,(%esp)
     b63:	e8 fc ff ff ff       	call   b64 <_ZN8fs_fat3213read_dir_fileEP12fs_directoryPcPj+0xd0>
     b68:	8b 55 c8             	mov    -0x38(%ebp),%edx
     b6b:	8b 32                	mov    (%edx),%esi
     b6d:	89 45 d4             	mov    %eax,-0x2c(%ebp)
     b70:	81 fe f8 ff ff 0f    	cmp    $0xffffff8,%esi
     b76:	0f 84 a7 00 00 00    	je     c23 <_ZN8fs_fat3213read_dir_fileEP12fs_directoryPcPj+0x18f>
     b7c:	8b 87 84 02 00 00    	mov    0x284(%edi),%eax
     b82:	31 db                	xor    %ebx,%ebx
     b84:	89 55 d0             	mov    %edx,-0x30(%ebp)
     b87:	eb 20                	jmp    ba9 <_ZN8fs_fat3213read_dir_fileEP12fs_directoryPcPj+0x115>
     b89:	8d b4 26 00 00 00 00 	lea    0x0(%esi,%eiz,1),%esi
     b90:	8b 45 d0             	mov    -0x30(%ebp),%eax
     b93:	43                   	inc    %ebx
     b94:	8b 34 98             	mov    (%eax,%ebx,4),%esi
     b97:	81 fe f8 ff ff 0f    	cmp    $0xffffff8,%esi
     b9d:	0f 84 80 00 00 00    	je     c23 <_ZN8fs_fat3213read_dir_fileEP12fs_directoryPcPj+0x18f>
     ba3:	8b 87 84 02 00 00    	mov    0x284(%edi),%eax
     ba9:	8d 55 e0             	lea    -0x20(%ebp),%edx
     bac:	89 54 24 0c          	mov    %edx,0xc(%esp)
     bb0:	0f af c3             	imul   %ebx,%eax
     bb3:	8b 55 d4             	mov    -0x2c(%ebp),%edx
     bb6:	89 74 24 04          	mov    %esi,0x4(%esp)
     bba:	89 3c 24             	mov    %edi,(%esp)
     bbd:	01 d0                	add    %edx,%eax
     bbf:	89 44 24 08          	mov    %eax,0x8(%esp)
     bc3:	e8 fc ff ff ff       	call   bc4 <_ZN8fs_fat3213read_dir_fileEP12fs_directoryPcPj+0x130>
     bc8:	85 c0                	test   %eax,%eax
     bca:	75 c4                	jne    b90 <_ZN8fs_fat3213read_dir_fileEP12fs_directoryPcPj+0xfc>
     bcc:	8b 45 e0             	mov    -0x20(%ebp),%eax
     bcf:	89 74 24 08          	mov    %esi,0x8(%esp)
     bd3:	be ac 1f 00 00       	mov    $0x1fac,%esi
     bd8:	89 74 24 04          	mov    %esi,0x4(%esp)
     bdc:	c7 04 24 04 00 00 00 	movl   $0x4,(%esp)
     be3:	89 44 24 0c          	mov    %eax,0xc(%esp)
     be7:	e8 fc ff ff ff       	call   be8 <_ZN8fs_fat3213read_dir_fileEP12fs_directoryPcPj+0x154>
     bec:	c7 45 d4 00 00 00 00 	movl   $0x0,-0x2c(%ebp)
     bf3:	eb 2e                	jmp    c23 <_ZN8fs_fat3213read_dir_fileEP12fs_directoryPcPj+0x18f>
     bf5:	8d 74 26 00          	lea    0x0(%esi,%eiz,1),%esi
     bf9:	8d bc 27 00 00 00 00 	lea    0x0(%edi,%eiz,1),%edi
     c00:	8b 5d d4             	mov    -0x2c(%ebp),%ebx
     c03:	c7 04 24 04 00 00 00 	movl   $0x4,(%esp)
     c0a:	89 5c 24 08          	mov    %ebx,0x8(%esp)
     c0e:	bb d8 1f 00 00       	mov    $0x1fd8,%ebx
     c13:	89 5c 24 04          	mov    %ebx,0x4(%esp)
     c17:	e8 fc ff ff ff       	call   c18 <_ZN8fs_fat3213read_dir_fileEP12fs_directoryPcPj+0x184>
     c1c:	c7 45 d4 00 00 00 00 	movl   $0x0,-0x2c(%ebp)
     c23:	8b 55 e4             	mov    -0x1c(%ebp),%edx
     c26:	33 15 00 00 00 00    	xor    0x0,%edx
     c2c:	8b 45 d4             	mov    -0x2c(%ebp),%eax
     c2f:	75 08                	jne    c39 <_ZN8fs_fat3213read_dir_fileEP12fs_directoryPcPj+0x1a5>
     c31:	83 c4 3c             	add    $0x3c,%esp
     c34:	5b                   	pop    %ebx
     c35:	5e                   	pop    %esi
     c36:	5f                   	pop    %edi
     c37:	5d                   	pop    %ebp
     c38:	c3                   	ret    
     c39:	e8 fc ff ff ff       	call   c3a <_ZN8fs_fat3213read_dir_fileEP12fs_directoryPcPj+0x1a6>
     c3e:	66 90                	xchg   %ax,%ax

00000c40 <_ZN8fs_fat3214read_directoryEP12fs_directoryPcbS2_>:
     c40:	55                   	push   %ebp
     c41:	89 e5                	mov    %esp,%ebp
     c43:	83 ec 48             	sub    $0x48,%esp
     c46:	8b 55 10             	mov    0x10(%ebp),%edx
     c49:	89 75 f8             	mov    %esi,-0x8(%ebp)
     c4c:	8b 75 0c             	mov    0xc(%ebp),%esi
     c4f:	a1 00 00 00 00       	mov    0x0,%eax
     c54:	89 45 e4             	mov    %eax,-0x1c(%ebp)
     c57:	31 c0                	xor    %eax,%eax
     c59:	89 5d f4             	mov    %ebx,-0xc(%ebp)
     c5c:	8b 5d 08             	mov    0x8(%ebp),%ebx
     c5f:	89 55 d0             	mov    %edx,-0x30(%ebp)
     c62:	8b 55 18             	mov    0x18(%ebp),%edx
     c65:	85 f6                	test   %esi,%esi
     c67:	89 7d fc             	mov    %edi,-0x4(%ebp)
     c6a:	89 55 d4             	mov    %edx,-0x2c(%ebp)
     c6d:	0f b6 55 14          	movzbl 0x14(%ebp),%edx
     c71:	88 55 cf             	mov    %dl,-0x31(%ebp)
     c74:	0f 84 e6 00 00 00    	je     d60 <_ZN8fs_fat3214read_directoryEP12fs_directoryPcbS2_+0x120>
     c7a:	8b 55 d4             	mov    -0x2c(%ebp),%edx
     c7d:	c7 45 e0 00 00 00 00 	movl   $0x0,-0x20(%ebp)
     c84:	89 54 24 04          	mov    %edx,0x4(%esp)
     c88:	8b 43 14             	mov    0x14(%ebx),%eax
     c8b:	89 04 24             	mov    %eax,(%esp)
     c8e:	e8 fc ff ff ff       	call   c8f <_ZN8fs_fat3214read_directoryEP12fs_directoryPcbS2_+0x4f>
     c93:	85 c0                	test   %eax,%eax
     c95:	89 c7                	mov    %eax,%edi
     c97:	75 77                	jne    d10 <_ZN8fs_fat3214read_directoryEP12fs_directoryPcbS2_+0xd0>
     c99:	8b 55 d0             	mov    -0x30(%ebp),%edx
     c9c:	8d 45 e0             	lea    -0x20(%ebp),%eax
     c9f:	89 44 24 0c          	mov    %eax,0xc(%esp)
     ca3:	89 74 24 04          	mov    %esi,0x4(%esp)
     ca7:	89 1c 24             	mov    %ebx,(%esp)
     caa:	89 54 24 08          	mov    %edx,0x8(%esp)
     cae:	e8 fc ff ff ff       	call   caf <_ZN8fs_fat3214read_directoryEP12fs_directoryPcbS2_+0x6f>
     cb3:	89 c7                	mov    %eax,%edi
     cb5:	31 c0                	xor    %eax,%eax
     cb7:	85 ff                	test   %edi,%edi
     cb9:	74 38                	je     cf3 <_ZN8fs_fat3214read_directoryEP12fs_directoryPcbS2_+0xb3>
     cbb:	c7 04 24 01 00 00 00 	movl   $0x1,(%esp)
     cc2:	e8 fc ff ff ff       	call   cc3 <_ZN8fs_fat3214read_directoryEP12fs_directoryPcbS2_+0x83>
     cc7:	8b 55 e0             	mov    -0x20(%ebp),%edx
     cca:	89 7c 24 04          	mov    %edi,0x4(%esp)
     cce:	89 1c 24             	mov    %ebx,(%esp)
     cd1:	89 54 24 08          	mov    %edx,0x8(%esp)
     cd5:	89 44 24 0c          	mov    %eax,0xc(%esp)
     cd9:	89 45 c8             	mov    %eax,-0x38(%ebp)
     cdc:	e8 fc ff ff ff       	call   cdd <_ZN8fs_fat3214read_directoryEP12fs_directoryPcbS2_+0x9d>
     ce1:	8b 56 14             	mov    0x14(%esi),%edx
     ce4:	8b 45 c8             	mov    -0x38(%ebp),%eax
     ce7:	80 7d cf 00          	cmpb   $0x0,-0x31(%ebp)
     ceb:	89 50 30             	mov    %edx,0x30(%eax)
     cee:	75 50                	jne    d40 <_ZN8fs_fat3214read_directoryEP12fs_directoryPcbS2_+0x100>
     cf0:	ff 40 2c             	incl   0x2c(%eax)
     cf3:	8b 55 e4             	mov    -0x1c(%ebp),%edx
     cf6:	33 15 00 00 00 00    	xor    0x0,%edx
     cfc:	0f 85 81 00 00 00    	jne    d83 <_ZN8fs_fat3214read_directoryEP12fs_directoryPcbS2_+0x143>
     d02:	8b 5d f4             	mov    -0xc(%ebp),%ebx
     d05:	8b 75 f8             	mov    -0x8(%ebp),%esi
     d08:	8b 7d fc             	mov    -0x4(%ebp),%edi
     d0b:	89 ec                	mov    %ebp,%esp
     d0d:	5d                   	pop    %ebp
     d0e:	c3                   	ret    
     d0f:	90                   	nop
     d10:	89 04 24             	mov    %eax,(%esp)
     d13:	e8 fc ff ff ff       	call   d14 <_ZN8fs_fat3214read_directoryEP12fs_directoryPcbS2_+0xd4>
     d18:	3d 45 52 49 44       	cmp    $0x44495245,%eax
     d1d:	0f 85 76 ff ff ff    	jne    c99 <_ZN8fs_fat3214read_directoryEP12fs_directoryPcbS2_+0x59>
     d23:	89 3c 24             	mov    %edi,(%esp)
     d26:	e8 fc ff ff ff       	call   d27 <_ZN8fs_fat3214read_directoryEP12fs_directoryPcbS2_+0xe7>
     d2b:	81 38 45 52 49 44    	cmpl   $0x44495245,(%eax)
     d31:	0f 85 62 ff ff ff    	jne    c99 <_ZN8fs_fat3214read_directoryEP12fs_directoryPcbS2_+0x59>
     d37:	eb ba                	jmp    cf3 <_ZN8fs_fat3214read_directoryEP12fs_directoryPcbS2_+0xb3>
     d39:	8d b4 26 00 00 00 00 	lea    0x0(%esi,%eiz,1),%esi
     d40:	8b 50 14             	mov    0x14(%eax),%edx
     d43:	89 54 24 08          	mov    %edx,0x8(%esp)
     d47:	8b 55 d4             	mov    -0x2c(%ebp),%edx
     d4a:	89 54 24 04          	mov    %edx,0x4(%esp)
     d4e:	8b 53 14             	mov    0x14(%ebx),%edx
     d51:	89 14 24             	mov    %edx,(%esp)
     d54:	e8 fc ff ff ff       	call   d55 <_ZN8fs_fat3214read_directoryEP12fs_directoryPcbS2_+0x115>
     d59:	8b 45 c8             	mov    -0x38(%ebp),%eax
     d5c:	eb 92                	jmp    cf0 <_ZN8fs_fat3214read_directoryEP12fs_directoryPcbS2_+0xb0>
     d5e:	66 90                	xchg   %ax,%ax
     d60:	bf 25 1f 00 00       	mov    $0x1f25,%edi
     d65:	b8 0a 01 00 00       	mov    $0x10a,%eax
     d6a:	89 7c 24 08          	mov    %edi,0x8(%esp)
     d6e:	89 44 24 04          	mov    %eax,0x4(%esp)
     d72:	c7 04 24 13 1f 00 00 	movl   $0x1f13,(%esp)
     d79:	e8 fc ff ff ff       	call   d7a <_ZN8fs_fat3214read_directoryEP12fs_directoryPcbS2_+0x13a>
     d7e:	e9 f7 fe ff ff       	jmp    c7a <_ZN8fs_fat3214read_directoryEP12fs_directoryPcbS2_+0x3a>
     d83:	e8 fc ff ff ff       	call   d84 <_ZN8fs_fat3214read_directoryEP12fs_directoryPcbS2_+0x144>

00000d88 <_ZN8fs_fat3214list_directoryEPcb>:
     d88:	55                   	push   %ebp
     d89:	89 e5                	mov    %esp,%ebp
     d8b:	57                   	push   %edi
     d8c:	56                   	push   %esi
     d8d:	53                   	push   %ebx
     d8e:	83 ec 5c             	sub    $0x5c,%esp
     d91:	8b 55 08             	mov    0x8(%ebp),%edx
     d94:	a1 00 00 00 00       	mov    0x0,%eax
     d99:	89 45 e4             	mov    %eax,-0x1c(%ebp)
     d9c:	31 c0                	xor    %eax,%eax
     d9e:	8b 5d 0c             	mov    0xc(%ebp),%ebx
     da1:	89 55 d0             	mov    %edx,-0x30(%ebp)
     da4:	0f b6 55 10          	movzbl 0x10(%ebp),%edx
     da8:	8b 45 d0             	mov    -0x30(%ebp),%eax
     dab:	88 55 d4             	mov    %dl,-0x2c(%ebp)
     dae:	8b 50 08             	mov    0x8(%eax),%edx
     db1:	89 1c 24             	mov    %ebx,(%esp)
     db4:	89 55 c4             	mov    %edx,-0x3c(%ebp)
     db7:	e8 fc ff ff ff       	call   db8 <_ZN8fs_fat3214list_directoryEPcb+0x30>
     dbc:	83 c0 02             	add    $0x2,%eax
     dbf:	89 04 24             	mov    %eax,(%esp)
     dc2:	e8 fc ff ff ff       	call   dc3 <_ZN8fs_fat3214list_directoryEPcb+0x3b>
     dc7:	c6 00 2f             	movb   $0x2f,(%eax)
     dca:	89 c7                	mov    %eax,%edi
     dcc:	8b 45 d0             	mov    -0x30(%ebp),%eax
     dcf:	89 5c 24 04          	mov    %ebx,0x4(%esp)
     dd3:	89 04 24             	mov    %eax,(%esp)
     dd6:	e8 fc ff ff ff       	call   dd7 <_ZN8fs_fat3214list_directoryEPcb+0x4f>
     ddb:	8b 55 c4             	mov    -0x3c(%ebp),%edx
     dde:	8b 58 08             	mov    0x8(%eax),%ebx
     de1:	89 c1                	mov    %eax,%ecx
     de3:	85 db                	test   %ebx,%ebx
     de5:	0f 84 95 00 00 00    	je     e80 <_ZN8fs_fat3214list_directoryEPcb+0xf8>
     deb:	0f b6 45 d4          	movzbl -0x2c(%ebp),%eax
     def:	31 f6                	xor    %esi,%esi
     df1:	c7 45 d4 01 00 00 00 	movl   $0x1,-0x2c(%ebp)
     df8:	89 45 cc             	mov    %eax,-0x34(%ebp)
     dfb:	eb 09                	jmp    e06 <_ZN8fs_fat3214list_directoryEPcb+0x7e>
     dfd:	8d 76 00             	lea    0x0(%esi),%esi
     e00:	46                   	inc    %esi
     e01:	39 71 08             	cmp    %esi,0x8(%ecx)
     e04:	76 7a                	jbe    e80 <_ZN8fs_fat3214list_directoryEPcb+0xf8>
     e06:	89 0c 24             	mov    %ecx,(%esp)
     e09:	89 4d c8             	mov    %ecx,-0x38(%ebp)
     e0c:	89 55 c4             	mov    %edx,-0x3c(%ebp)
     e0f:	89 74 24 04          	mov    %esi,0x4(%esp)
     e13:	e8 fc ff ff ff       	call   e14 <_ZN8fs_fat3214list_directoryEPcb+0x8c>
     e18:	89 c3                	mov    %eax,%ebx
     e1a:	89 44 24 04          	mov    %eax,0x4(%esp)
     e1e:	8b 45 d4             	mov    -0x2c(%ebp),%eax
     e21:	01 f8                	add    %edi,%eax
     e23:	89 04 24             	mov    %eax,(%esp)
     e26:	e8 fc ff ff ff       	call   e27 <_ZN8fs_fat3214list_directoryEPcb+0x9f>
     e2b:	89 1c 24             	mov    %ebx,(%esp)
     e2e:	e8 fc ff ff ff       	call   e2f <_ZN8fs_fat3214list_directoryEPcb+0xa7>
     e33:	8b 55 d4             	mov    -0x2c(%ebp),%edx
     e36:	01 d0                	add    %edx,%eax
     e38:	c6 04 07 2f          	movb   $0x2f,(%edi,%eax,1)
     e3c:	40                   	inc    %eax
     e3d:	8b 55 c4             	mov    -0x3c(%ebp),%edx
     e40:	89 45 d4             	mov    %eax,-0x2c(%ebp)
     e43:	8b 45 cc             	mov    -0x34(%ebp),%eax
     e46:	89 7c 24 10          	mov    %edi,0x10(%esp)
     e4a:	89 5c 24 08          	mov    %ebx,0x8(%esp)
     e4e:	89 54 24 04          	mov    %edx,0x4(%esp)
     e52:	8b 55 d0             	mov    -0x30(%ebp),%edx
     e55:	89 44 24 0c          	mov    %eax,0xc(%esp)
     e59:	89 14 24             	mov    %edx,(%esp)
     e5c:	e8 fc ff ff ff       	call   e5d <_ZN8fs_fat3214list_directoryEPcb+0xd5>
     e61:	8b 4d c8             	mov    -0x38(%ebp),%ecx
     e64:	85 c0                	test   %eax,%eax
     e66:	89 c2                	mov    %eax,%edx
     e68:	75 96                	jne    e00 <_ZN8fs_fat3214list_directoryEPcb+0x78>
     e6a:	89 d0                	mov    %edx,%eax
     e6c:	8b 55 e4             	mov    -0x1c(%ebp),%edx
     e6f:	33 15 00 00 00 00    	xor    0x0,%edx
     e75:	75 46                	jne    ebd <_ZN8fs_fat3214list_directoryEPcb+0x135>
     e77:	83 c4 5c             	add    $0x5c,%esp
     e7a:	5b                   	pop    %ebx
     e7b:	5e                   	pop    %esi
     e7c:	5f                   	pop    %edi
     e7d:	5d                   	pop    %ebp
     e7e:	c3                   	ret    
     e7f:	90                   	nop
     e80:	89 55 c4             	mov    %edx,-0x3c(%ebp)
     e83:	89 4d c8             	mov    %ecx,-0x38(%ebp)
     e86:	89 3c 24             	mov    %edi,(%esp)
     e89:	e8 fc ff ff ff       	call   e8a <_ZN8fs_fat3214list_directoryEPcb+0x102>
     e8e:	8b 4d c8             	mov    -0x38(%ebp),%ecx
     e91:	31 c0                	xor    %eax,%eax
     e93:	89 44 24 04          	mov    %eax,0x4(%esp)
     e97:	89 0c 24             	mov    %ecx,(%esp)
     e9a:	e8 fc ff ff ff       	call   e9b <_ZN8fs_fat3214list_directoryEPcb+0x113>
     e9f:	89 04 24             	mov    %eax,(%esp)
     ea2:	e8 fc ff ff ff       	call   ea3 <_ZN8fs_fat3214list_directoryEPcb+0x11b>
     ea7:	8b 4d c8             	mov    -0x38(%ebp),%ecx
     eaa:	31 c0                	xor    %eax,%eax
     eac:	89 44 24 04          	mov    %eax,0x4(%esp)
     eb0:	89 0c 24             	mov    %ecx,(%esp)
     eb3:	e8 fc ff ff ff       	call   eb4 <_ZN8fs_fat3214list_directoryEPcb+0x12c>
     eb8:	8b 55 c4             	mov    -0x3c(%ebp),%edx
     ebb:	eb ad                	jmp    e6a <_ZN8fs_fat3214list_directoryEPcb+0xe2>
     ebd:	e8 fc ff ff ff       	call   ebe <_ZN8fs_fat3214list_directoryEPcb+0x136>
     ec2:	66 90                	xchg   %ax,%ax

00000ec4 <_ZN8fs_fat3213read_root_dirEv>:
     ec4:	55                   	push   %ebp
     ec5:	89 e5                	mov    %esp,%ebp
     ec7:	57                   	push   %edi
     ec8:	56                   	push   %esi
     ec9:	53                   	push   %ebx
     eca:	83 ec 3c             	sub    $0x3c,%esp
     ecd:	8b 7d 08             	mov    0x8(%ebp),%edi
     ed0:	a1 00 00 00 00       	mov    0x0,%eax
     ed5:	89 45 e4             	mov    %eax,-0x1c(%ebp)
     ed8:	31 c0                	xor    %eax,%eax
     eda:	8b 5f 08             	mov    0x8(%edi),%ebx
     edd:	85 db                	test   %ebx,%ebx
     edf:	0f 84 4b 01 00 00    	je     1030 <_ZN8fs_fat3213read_root_dirEv+0x16c>
     ee5:	c7 04 24 00 00 00 00 	movl   $0x0,(%esp)
     eec:	e8 fc ff ff ff       	call   eed <_ZN8fs_fat3213read_root_dirEv+0x29>
     ef1:	89 44 24 04          	mov    %eax,0x4(%esp)
     ef5:	89 c3                	mov    %eax,%ebx
     ef7:	8b 47 08             	mov    0x8(%edi),%eax
     efa:	89 04 24             	mov    %eax,(%esp)
     efd:	e8 fc ff ff ff       	call   efe <_ZN8fs_fat3213read_root_dirEv+0x3a>
     f02:	89 5f 08             	mov    %ebx,0x8(%edi)
     f05:	8b 47 44             	mov    0x44(%edi),%eax
     f08:	89 3c 24             	mov    %edi,(%esp)
     f0b:	25 ff ff ff 0f       	and    $0xfffffff,%eax
     f10:	89 44 24 04          	mov    %eax,0x4(%esp)
     f14:	e8 fc ff ff ff       	call   f15 <_ZN8fs_fat3213read_root_dirEv+0x51>
     f19:	81 38 f8 ff ff 0f    	cmpl   $0xffffff8,(%eax)
     f1f:	89 c2                	mov    %eax,%edx
     f21:	0f 84 1d 01 00 00    	je     1044 <_ZN8fs_fat3213read_root_dirEv+0x180>
     f27:	31 c0                	xor    %eax,%eax
     f29:	8d b4 26 00 00 00 00 	lea    0x0(%esi,%eiz,1),%esi
     f30:	40                   	inc    %eax
     f31:	81 3c 82 f8 ff ff 0f 	cmpl   $0xffffff8,(%edx,%eax,4)
     f38:	75 f6                	jne    f30 <_ZN8fs_fat3213read_root_dirEv+0x6c>
     f3a:	8b 8f 84 02 00 00    	mov    0x284(%edi),%ecx
     f40:	0f af c1             	imul   %ecx,%eax
     f43:	89 c1                	mov    %eax,%ecx
     f45:	c1 e9 05             	shr    $0x5,%ecx
     f48:	89 4d cc             	mov    %ecx,-0x34(%ebp)
     f4b:	89 55 c8             	mov    %edx,-0x38(%ebp)
     f4e:	89 04 24             	mov    %eax,(%esp)
     f51:	e8 fc ff ff ff       	call   f52 <_ZN8fs_fat3213read_root_dirEv+0x8e>
     f56:	8b 55 c8             	mov    -0x38(%ebp),%edx
     f59:	8b 32                	mov    (%edx),%esi
     f5b:	89 45 d4             	mov    %eax,-0x2c(%ebp)
     f5e:	81 fe f8 ff ff 0f    	cmp    $0xffffff8,%esi
     f64:	74 7d                	je     fe3 <_ZN8fs_fat3213read_root_dirEv+0x11f>
     f66:	8b 87 84 02 00 00    	mov    0x284(%edi),%eax
     f6c:	31 db                	xor    %ebx,%ebx
     f6e:	89 55 d0             	mov    %edx,-0x30(%ebp)
     f71:	eb 22                	jmp    f95 <_ZN8fs_fat3213read_root_dirEv+0xd1>
     f73:	8d b6 00 00 00 00    	lea    0x0(%esi),%esi
     f79:	8d bc 27 00 00 00 00 	lea    0x0(%edi,%eiz,1),%edi
     f80:	8b 45 d0             	mov    -0x30(%ebp),%eax
     f83:	43                   	inc    %ebx
     f84:	8b 34 98             	mov    (%eax,%ebx,4),%esi
     f87:	81 fe f8 ff ff 0f    	cmp    $0xffffff8,%esi
     f8d:	74 51                	je     fe0 <_ZN8fs_fat3213read_root_dirEv+0x11c>
     f8f:	8b 87 84 02 00 00    	mov    0x284(%edi),%eax
     f95:	8d 55 e0             	lea    -0x20(%ebp),%edx
     f98:	89 54 24 0c          	mov    %edx,0xc(%esp)
     f9c:	0f af c3             	imul   %ebx,%eax
     f9f:	8b 55 d4             	mov    -0x2c(%ebp),%edx
     fa2:	89 74 24 04          	mov    %esi,0x4(%esp)
     fa6:	89 3c 24             	mov    %edi,(%esp)
     fa9:	01 d0                	add    %edx,%eax
     fab:	89 44 24 08          	mov    %eax,0x8(%esp)
     faf:	e8 fc ff ff ff       	call   fb0 <_ZN8fs_fat3213read_root_dirEv+0xec>
     fb4:	85 c0                	test   %eax,%eax
     fb6:	75 c8                	jne    f80 <_ZN8fs_fat3213read_root_dirEv+0xbc>
     fb8:	8b 45 e0             	mov    -0x20(%ebp),%eax
     fbb:	89 74 24 08          	mov    %esi,0x8(%esp)
     fbf:	be fc 1f 00 00       	mov    $0x1ffc,%esi
     fc4:	89 74 24 04          	mov    %esi,0x4(%esp)
     fc8:	c7 04 24 04 00 00 00 	movl   $0x4,(%esp)
     fcf:	89 44 24 0c          	mov    %eax,0xc(%esp)
     fd3:	e8 fc ff ff ff       	call   fd4 <_ZN8fs_fat3213read_root_dirEv+0x110>
     fd8:	eb 3f                	jmp    1019 <_ZN8fs_fat3213read_root_dirEv+0x155>
     fda:	8d b6 00 00 00 00    	lea    0x0(%esi),%esi
     fe0:	8b 55 d0             	mov    -0x30(%ebp),%edx
     fe3:	8b 47 08             	mov    0x8(%edi),%eax
     fe6:	8b 4d cc             	mov    -0x34(%ebp),%ecx
     fe9:	89 55 c8             	mov    %edx,-0x38(%ebp)
     fec:	89 3c 24             	mov    %edi,(%esp)
     fef:	89 44 24 0c          	mov    %eax,0xc(%esp)
     ff3:	8b 45 d4             	mov    -0x2c(%ebp),%eax
     ff6:	89 4c 24 08          	mov    %ecx,0x8(%esp)
     ffa:	89 44 24 04          	mov    %eax,0x4(%esp)
     ffe:	e8 fc ff ff ff       	call   fff <_ZN8fs_fat3213read_root_dirEv+0x13b>
    1003:	8b 55 c8             	mov    -0x38(%ebp),%edx
    1006:	89 14 24             	mov    %edx,(%esp)
    1009:	e8 fc ff ff ff       	call   100a <_ZN8fs_fat3213read_root_dirEv+0x146>
    100e:	8b 45 d4             	mov    -0x2c(%ebp),%eax
    1011:	89 04 24             	mov    %eax,(%esp)
    1014:	e8 fc ff ff ff       	call   1015 <_ZN8fs_fat3213read_root_dirEv+0x151>
    1019:	8b 55 e4             	mov    -0x1c(%ebp),%edx
    101c:	33 15 00 00 00 00    	xor    0x0,%edx
    1022:	75 2e                	jne    1052 <_ZN8fs_fat3213read_root_dirEv+0x18e>
    1024:	83 c4 3c             	add    $0x3c,%esp
    1027:	5b                   	pop    %ebx
    1028:	5e                   	pop    %esi
    1029:	5f                   	pop    %edi
    102a:	5d                   	pop    %ebp
    102b:	c3                   	ret    
    102c:	8d 74 26 00          	lea    0x0(%esi,%eiz,1),%esi
    1030:	c7 04 24 01 00 00 00 	movl   $0x1,(%esp)
    1037:	e8 fc ff ff ff       	call   1038 <_ZN8fs_fat3213read_root_dirEv+0x174>
    103c:	89 47 08             	mov    %eax,0x8(%edi)
    103f:	e9 c1 fe ff ff       	jmp    f05 <_ZN8fs_fat3213read_root_dirEv+0x41>
    1044:	c7 45 cc 00 00 00 00 	movl   $0x0,-0x34(%ebp)
    104b:	31 c0                	xor    %eax,%eax
    104d:	e9 f9 fe ff ff       	jmp    f4b <_ZN8fs_fat3213read_root_dirEv+0x87>
    1052:	e8 fc ff ff ff       	call   1053 <_ZN8fs_fat3213read_root_dirEv+0x18f>
    1057:	90                   	nop

00001058 <_ZN8fs_fat32C1EP18hal_disk_partitionP8hal_disk>:
    1058:	55                   	push   %ebp
    1059:	89 e5                	mov    %esp,%ebp
    105b:	57                   	push   %edi
    105c:	56                   	push   %esi
    105d:	53                   	push   %ebx
    105e:	83 ec 3c             	sub    $0x3c,%esp
    1061:	a1 00 00 00 00       	mov    0x0,%eax
    1066:	89 45 e4             	mov    %eax,-0x1c(%ebp)
    1069:	31 c0                	xor    %eax,%eax
    106b:	8b 45 10             	mov    0x10(%ebp),%eax
    106e:	8d 75 e0             	lea    -0x20(%ebp),%esi
    1071:	8b 5d 08             	mov    0x8(%ebp),%ebx
    1074:	89 44 24 08          	mov    %eax,0x8(%esp)
    1078:	8b 45 0c             	mov    0xc(%ebp),%eax
    107b:	89 1c 24             	mov    %ebx,(%esp)
    107e:	89 44 24 04          	mov    %eax,0x4(%esp)
    1082:	e8 fc ff ff ff       	call   1083 <_ZN8fs_fat32C1EP18hal_disk_partitionP8hal_disk+0x2b>
    1087:	8d 43 18             	lea    0x18(%ebx),%eax
    108a:	89 44 24 0c          	mov    %eax,0xc(%esp)
    108e:	b8 01 00 00 00       	mov    $0x1,%eax
    1093:	89 44 24 08          	mov    %eax,0x8(%esp)
    1097:	31 c0                	xor    %eax,%eax
    1099:	c7 45 e0 00 00 00 00 	movl   $0x0,-0x20(%ebp)
    10a0:	89 74 24 10          	mov    %esi,0x10(%esp)
    10a4:	89 44 24 04          	mov    %eax,0x4(%esp)
    10a8:	89 1c 24             	mov    %ebx,(%esp)
    10ab:	e8 fc ff ff ff       	call   10ac <_ZN8fs_fat32C1EP18hal_disk_partitionP8hal_disk+0x54>
    10b0:	85 c0                	test   %eax,%eax
    10b2:	0f 84 a8 02 00 00    	je     1360 <_ZN8fs_fat32C1EP18hal_disk_partitionP8hal_disk+0x308>
    10b8:	0f b7 43 29          	movzwl 0x29(%ebx),%eax
    10bc:	0f b7 4b 23          	movzwl 0x23(%ebx),%ecx
    10c0:	0f b7 7b 26          	movzwl 0x26(%ebx),%edi
    10c4:	c1 e0 05             	shl    $0x5,%eax
    10c7:	8d 44 01 ff          	lea    -0x1(%ecx,%eax,1),%eax
    10cb:	99                   	cltd   
    10cc:	f7 f9                	idiv   %ecx
    10ce:	8b 53 38             	mov    0x38(%ebx),%edx
    10d1:	29 fa                	sub    %edi,%edx
    10d3:	0f b6 7b 28          	movzbl 0x28(%ebx),%edi
    10d7:	0f af 7b 3c          	imul   0x3c(%ebx),%edi
    10db:	29 fa                	sub    %edi,%edx
    10dd:	0f b6 7b 25          	movzbl 0x25(%ebx),%edi
    10e1:	0f af cf             	imul   %edi,%ecx
    10e4:	89 8b 84 02 00 00    	mov    %ecx,0x284(%ebx)
    10ea:	89 83 74 02 00 00    	mov    %eax,0x274(%ebx)
    10f0:	01 d0                	add    %edx,%eax
    10f2:	31 d2                	xor    %edx,%edx
    10f4:	89 83 7c 02 00 00    	mov    %eax,0x27c(%ebx)
    10fa:	f7 f7                	div    %edi
    10fc:	89 83 78 02 00 00    	mov    %eax,0x278(%ebx)
    1102:	b8 2c 20 00 00       	mov    $0x202c,%eax
    1107:	89 4c 24 08          	mov    %ecx,0x8(%esp)
    110b:	89 44 24 04          	mov    %eax,0x4(%esp)
    110f:	c7 04 24 00 00 00 00 	movl   $0x0,(%esp)
    1116:	e8 fc ff ff ff       	call   1117 <_ZN8fs_fat32C1EP18hal_disk_partitionP8hal_disk+0xbf>
    111b:	0f b6 43 28          	movzbl 0x28(%ebx),%eax
    111f:	8b 7b 3c             	mov    0x3c(%ebx),%edi
    1122:	0f b7 53 26          	movzwl 0x26(%ebx),%edx
    1126:	8b 8b 74 02 00 00    	mov    0x274(%ebx),%ecx
    112c:	0f af c7             	imul   %edi,%eax
    112f:	01 ca                	add    %ecx,%edx
    1131:	01 d0                	add    %edx,%eax
    1133:	89 83 80 02 00 00    	mov    %eax,0x280(%ebx)
    1139:	8b 83 78 02 00 00    	mov    0x278(%ebx),%eax
    113f:	3d f4 0f 00 00       	cmp    $0xff4,%eax
    1144:	0f 86 d6 01 00 00    	jbe    1320 <_ZN8fs_fat32C1EP18hal_disk_partitionP8hal_disk+0x2c8>
    114a:	3d f4 ff 00 00       	cmp    $0xfff4,%eax
    114f:	0f 86 0b 01 00 00    	jbe    1260 <_ZN8fs_fat32C1EP18hal_disk_partitionP8hal_disk+0x208>
    1155:	8d 43 72             	lea    0x72(%ebx),%eax
    1158:	bf 01 00 00 00       	mov    $0x1,%edi
    115d:	89 74 24 10          	mov    %esi,0x10(%esp)
    1161:	89 44 24 0c          	mov    %eax,0xc(%esp)
    1165:	89 7c 24 08          	mov    %edi,0x8(%esp)
    1169:	0f b7 43 48          	movzwl 0x48(%ebx),%eax
    116d:	89 1c 24             	mov    %ebx,(%esp)
    1170:	89 44 24 04          	mov    %eax,0x4(%esp)
    1174:	e8 fc ff ff ff       	call   1175 <_ZN8fs_fat32C1EP18hal_disk_partitionP8hal_disk+0x11d>
    1179:	85 c0                	test   %eax,%eax
    117b:	0f 84 0f 02 00 00    	je     1390 <_ZN8fs_fat32C1EP18hal_disk_partitionP8hal_disk+0x338>
    1181:	8b 43 72             	mov    0x72(%ebx),%eax
    1184:	8b 93 56 02 00 00    	mov    0x256(%ebx),%edx
    118a:	8b 8b 6e 02 00 00    	mov    0x26e(%ebx),%ecx
    1190:	3d 52 52 61 41       	cmp    $0x41615252,%eax
    1195:	75 0c                	jne    11a3 <_ZN8fs_fat32C1EP18hal_disk_partitionP8hal_disk+0x14b>
    1197:	81 fa 72 72 41 61    	cmp    $0x61417272,%edx
    119d:	0f 84 ed 00 00 00    	je     1290 <_ZN8fs_fat32C1EP18hal_disk_partitionP8hal_disk+0x238>
    11a3:	89 4c 24 10          	mov    %ecx,0x10(%esp)
    11a7:	b9 dc 20 00 00       	mov    $0x20dc,%ecx
    11ac:	89 54 24 0c          	mov    %edx,0xc(%esp)
    11b0:	89 44 24 08          	mov    %eax,0x8(%esp)
    11b4:	89 4c 24 04          	mov    %ecx,0x4(%esp)
    11b8:	c7 04 24 03 00 00 00 	movl   $0x3,(%esp)
    11bf:	e8 fc ff ff ff       	call   11c0 <_ZN8fs_fat32C1EP18hal_disk_partitionP8hal_disk+0x168>
    11c4:	8b 83 84 02 00 00    	mov    0x284(%ebx),%eax
    11ca:	89 04 24             	mov    %eax,(%esp)
    11cd:	e8 fc ff ff ff       	call   11ce <_ZN8fs_fat32C1EP18hal_disk_partitionP8hal_disk+0x176>
    11d2:	89 83 88 02 00 00    	mov    %eax,0x288(%ebx)
    11d8:	8b 83 84 02 00 00    	mov    0x284(%ebx),%eax
    11de:	89 04 24             	mov    %eax,(%esp)
    11e1:	e8 fc ff ff ff       	call   11e2 <_ZN8fs_fat32C1EP18hal_disk_partitionP8hal_disk+0x18a>
    11e6:	89 83 8c 02 00 00    	mov    %eax,0x28c(%ebx)
    11ec:	e8 fc ff ff ff       	call   11ed <_ZN8fs_fat32C1EP18hal_disk_partitionP8hal_disk+0x195>
    11f1:	89 43 14             	mov    %eax,0x14(%ebx)
    11f4:	89 74 24 10          	mov    %esi,0x10(%esp)
    11f8:	8b 83 88 02 00 00    	mov    0x288(%ebx),%eax
    11fe:	89 44 24 0c          	mov    %eax,0xc(%esp)
    1202:	b8 01 00 00 00       	mov    $0x1,%eax
    1207:	89 44 24 08          	mov    %eax,0x8(%esp)
    120b:	0f b7 43 26          	movzwl 0x26(%ebx),%eax
    120f:	89 1c 24             	mov    %ebx,(%esp)
    1212:	89 44 24 04          	mov    %eax,0x4(%esp)
    1216:	e8 fc ff ff ff       	call   1217 <_ZN8fs_fat32C1EP18hal_disk_partitionP8hal_disk+0x1bf>
    121b:	85 c0                	test   %eax,%eax
    121d:	0f 84 9d 01 00 00    	je     13c0 <_ZN8fs_fat32C1EP18hal_disk_partitionP8hal_disk+0x368>
    1223:	8b 83 88 02 00 00    	mov    0x288(%ebx),%eax
    1229:	f6 40 07 08          	testb  $0x8,0x7(%eax)
    122d:	0f 95 c0             	setne  %al
    1230:	84 c0                	test   %al,%al
    1232:	88 43 10             	mov    %al,0x10(%ebx)
    1235:	0f 84 05 01 00 00    	je     1340 <_ZN8fs_fat32C1EP18hal_disk_partitionP8hal_disk+0x2e8>
    123b:	be 65 1f 00 00       	mov    $0x1f65,%esi
    1240:	89 1c 24             	mov    %ebx,(%esp)
    1243:	e8 fc ff ff ff       	call   1244 <_ZN8fs_fat32C1EP18hal_disk_partitionP8hal_disk+0x1ec>
    1248:	89 74 24 04          	mov    %esi,0x4(%esp)
    124c:	c7 04 24 02 00 00 00 	movl   $0x2,(%esp)
    1253:	e8 fc ff ff ff       	call   1254 <_ZN8fs_fat32C1EP18hal_disk_partitionP8hal_disk+0x1fc>
    1258:	eb 1b                	jmp    1275 <_ZN8fs_fat32C1EP18hal_disk_partitionP8hal_disk+0x21d>
    125a:	8d b6 00 00 00 00    	lea    0x0(%esi),%esi
    1260:	b8 84 20 00 00       	mov    $0x2084,%eax
    1265:	89 44 24 04          	mov    %eax,0x4(%esp)
    1269:	c7 04 24 04 00 00 00 	movl   $0x4,(%esp)
    1270:	e8 fc ff ff ff       	call   1271 <_ZN8fs_fat32C1EP18hal_disk_partitionP8hal_disk+0x219>
    1275:	8b 45 e4             	mov    -0x1c(%ebp),%eax
    1278:	33 05 00 00 00 00    	xor    0x0,%eax
    127e:	0f 85 5d 01 00 00    	jne    13e1 <_ZN8fs_fat32C1EP18hal_disk_partitionP8hal_disk+0x389>
    1284:	83 c4 3c             	add    $0x3c,%esp
    1287:	5b                   	pop    %ebx
    1288:	5e                   	pop    %esi
    1289:	5f                   	pop    %edi
    128a:	5d                   	pop    %ebp
    128b:	c3                   	ret    
    128c:	8d 74 26 00          	lea    0x0(%esi,%eiz,1),%esi
    1290:	81 f9 00 00 55 aa    	cmp    $0xaa550000,%ecx
    1296:	0f 85 07 ff ff ff    	jne    11a3 <_ZN8fs_fat32C1EP18hal_disk_partitionP8hal_disk+0x14b>
    129c:	8b 83 5e 02 00 00    	mov    0x25e(%ebx),%eax
    12a2:	89 44 24 10          	mov    %eax,0x10(%esp)
    12a6:	8b 83 5a 02 00 00    	mov    0x25a(%ebx),%eax
    12ac:	89 44 24 0c          	mov    %eax,0xc(%esp)
    12b0:	8b 83 78 02 00 00    	mov    0x278(%ebx),%eax
    12b6:	c7 04 24 00 00 00 00 	movl   $0x0,(%esp)
    12bd:	89 44 24 08          	mov    %eax,0x8(%esp)
    12c1:	b8 0c 21 00 00       	mov    $0x210c,%eax
    12c6:	89 44 24 04          	mov    %eax,0x4(%esp)
    12ca:	e8 fc ff ff ff       	call   12cb <_ZN8fs_fat32C1EP18hal_disk_partitionP8hal_disk+0x273>
    12cf:	c7 04 24 10 00 00 00 	movl   $0x10,(%esp)
    12d6:	e8 fc ff ff ff       	call   12d7 <_ZN8fs_fat32C1EP18hal_disk_partitionP8hal_disk+0x27f>
    12db:	ba 0b 00 00 00       	mov    $0xb,%edx
    12e0:	89 43 0c             	mov    %eax,0xc(%ebx)
    12e3:	89 54 24 08          	mov    %edx,0x8(%esp)
    12e7:	8d 53 5f             	lea    0x5f(%ebx),%edx
    12ea:	89 54 24 04          	mov    %edx,0x4(%esp)
    12ee:	89 04 24             	mov    %eax,(%esp)
    12f1:	e8 fc ff ff ff       	call   12f2 <_ZN8fs_fat32C1EP18hal_disk_partitionP8hal_disk+0x29a>
    12f6:	b8 0a 00 00 00       	mov    $0xa,%eax
    12fb:	90                   	nop
    12fc:	8d 74 26 00          	lea    0x0(%esi,%eiz,1),%esi
    1300:	8b 53 0c             	mov    0xc(%ebx),%edx
    1303:	01 c2                	add    %eax,%edx
    1305:	80 3a 20             	cmpb   $0x20,(%edx)
    1308:	0f 85 b6 fe ff ff    	jne    11c4 <_ZN8fs_fat32C1EP18hal_disk_partitionP8hal_disk+0x16c>
    130e:	48                   	dec    %eax
    130f:	c6 02 00             	movb   $0x0,(%edx)
    1312:	75 ec                	jne    1300 <_ZN8fs_fat32C1EP18hal_disk_partitionP8hal_disk+0x2a8>
    1314:	e9 ab fe ff ff       	jmp    11c4 <_ZN8fs_fat32C1EP18hal_disk_partitionP8hal_disk+0x16c>
    1319:	8d b4 26 00 00 00 00 	lea    0x0(%esi,%eiz,1),%esi
    1320:	b8 50 20 00 00       	mov    $0x2050,%eax
    1325:	89 44 24 04          	mov    %eax,0x4(%esp)
    1329:	c7 04 24 04 00 00 00 	movl   $0x4,(%esp)
    1330:	e8 fc ff ff ff       	call   1331 <_ZN8fs_fat32C1EP18hal_disk_partitionP8hal_disk+0x2d9>
    1335:	e9 3b ff ff ff       	jmp    1275 <_ZN8fs_fat32C1EP18hal_disk_partitionP8hal_disk+0x21d>
    133a:	8d b6 00 00 00 00    	lea    0x0(%esi),%esi
    1340:	bf 40 21 00 00       	mov    $0x2140,%edi
    1345:	89 7c 24 04          	mov    %edi,0x4(%esp)
    1349:	c7 04 24 03 00 00 00 	movl   $0x3,(%esp)
    1350:	e8 fc ff ff ff       	call   1351 <_ZN8fs_fat32C1EP18hal_disk_partitionP8hal_disk+0x2f9>
    1355:	e9 e1 fe ff ff       	jmp    123b <_ZN8fs_fat32C1EP18hal_disk_partitionP8hal_disk+0x1e3>
    135a:	8d b6 00 00 00 00    	lea    0x0(%esi),%esi
    1360:	8b 45 e0             	mov    -0x20(%ebp),%eax
    1363:	c7 04 24 04 00 00 00 	movl   $0x4,(%esp)
    136a:	89 44 24 08          	mov    %eax,0x8(%esp)
    136e:	b8 29 1f 00 00       	mov    $0x1f29,%eax
    1373:	89 44 24 04          	mov    %eax,0x4(%esp)
    1377:	e8 fc ff ff ff       	call   1378 <_ZN8fs_fat32C1EP18hal_disk_partitionP8hal_disk+0x320>
    137c:	e9 f4 fe ff ff       	jmp    1275 <_ZN8fs_fat32C1EP18hal_disk_partitionP8hal_disk+0x21d>
    1381:	eb 0d                	jmp    1390 <_ZN8fs_fat32C1EP18hal_disk_partitionP8hal_disk+0x338>
    1383:	90                   	nop
    1384:	90                   	nop
    1385:	90                   	nop
    1386:	90                   	nop
    1387:	90                   	nop
    1388:	90                   	nop
    1389:	90                   	nop
    138a:	90                   	nop
    138b:	90                   	nop
    138c:	90                   	nop
    138d:	90                   	nop
    138e:	90                   	nop
    138f:	90                   	nop
    1390:	8b 45 e0             	mov    -0x20(%ebp),%eax
    1393:	bb b8 20 00 00       	mov    $0x20b8,%ebx
    1398:	89 5c 24 04          	mov    %ebx,0x4(%esp)
    139c:	c7 04 24 04 00 00 00 	movl   $0x4,(%esp)
    13a3:	89 44 24 08          	mov    %eax,0x8(%esp)
    13a7:	e8 fc ff ff ff       	call   13a8 <_ZN8fs_fat32C1EP18hal_disk_partitionP8hal_disk+0x350>
    13ac:	e9 c4 fe ff ff       	jmp    1275 <_ZN8fs_fat32C1EP18hal_disk_partitionP8hal_disk+0x21d>
    13b1:	eb 0d                	jmp    13c0 <_ZN8fs_fat32C1EP18hal_disk_partitionP8hal_disk+0x368>
    13b3:	90                   	nop
    13b4:	90                   	nop
    13b5:	90                   	nop
    13b6:	90                   	nop
    13b7:	90                   	nop
    13b8:	90                   	nop
    13b9:	90                   	nop
    13ba:	90                   	nop
    13bb:	90                   	nop
    13bc:	90                   	nop
    13bd:	90                   	nop
    13be:	90                   	nop
    13bf:	90                   	nop
    13c0:	8b 45 e0             	mov    -0x20(%ebp),%eax
    13c3:	c7 04 24 04 00 00 00 	movl   $0x4,(%esp)
    13ca:	89 44 24 08          	mov    %eax,0x8(%esp)
    13ce:	b8 47 1f 00 00       	mov    $0x1f47,%eax
    13d3:	89 44 24 04          	mov    %eax,0x4(%esp)
    13d7:	e8 fc ff ff ff       	call   13d8 <_ZN8fs_fat32C1EP18hal_disk_partitionP8hal_disk+0x380>
    13dc:	e9 94 fe ff ff       	jmp    1275 <_ZN8fs_fat32C1EP18hal_disk_partitionP8hal_disk+0x21d>
    13e1:	e8 fc ff ff ff       	call   13e2 <_ZN8fs_fat32C1EP18hal_disk_partitionP8hal_disk+0x38a>
    13e6:	66 90                	xchg   %ax,%ax

000013e8 <_ZN8fs_fat328get_fileEPc>:
    13e8:	55                   	push   %ebp
    13e9:	89 e5                	mov    %esp,%ebp
    13eb:	57                   	push   %edi
    13ec:	56                   	push   %esi
    13ed:	53                   	push   %ebx
    13ee:	83 ec 3c             	sub    $0x3c,%esp
    13f1:	8b 55 08             	mov    0x8(%ebp),%edx
    13f4:	8b 5d 0c             	mov    0xc(%ebp),%ebx
    13f7:	a1 00 00 00 00       	mov    0x0,%eax
    13fc:	89 45 e4             	mov    %eax,-0x1c(%ebp)
    13ff:	31 c0                	xor    %eax,%eax
    1401:	89 55 d0             	mov    %edx,-0x30(%ebp)
    1404:	89 1c 24             	mov    %ebx,(%esp)
    1407:	e8 fc ff ff ff       	call   1408 <_ZN8fs_fat328get_fileEPc+0x20>
    140c:	83 c0 02             	add    $0x2,%eax
    140f:	89 04 24             	mov    %eax,(%esp)
    1412:	e8 fc ff ff ff       	call   1413 <_ZN8fs_fat328get_fileEPc+0x2b>
    1417:	8b 55 d0             	mov    -0x30(%ebp),%edx
    141a:	c6 00 2f             	movb   $0x2f,(%eax)
    141d:	89 45 d4             	mov    %eax,-0x2c(%ebp)
    1420:	89 5c 24 04          	mov    %ebx,0x4(%esp)
    1424:	89 14 24             	mov    %edx,(%esp)
    1427:	e8 fc ff ff ff       	call   1428 <_ZN8fs_fat328get_fileEPc+0x40>
    142c:	89 c7                	mov    %eax,%edi
    142e:	31 c0                	xor    %eax,%eax
    1430:	83 7f 08 01          	cmpl   $0x1,0x8(%edi)
    1434:	74 4c                	je     1482 <_ZN8fs_fat328get_fileEPc+0x9a>
    1436:	31 db                	xor    %ebx,%ebx
    1438:	be 01 00 00 00       	mov    $0x1,%esi
    143d:	89 fa                	mov    %edi,%edx
    143f:	90                   	nop
    1440:	89 14 24             	mov    %edx,(%esp)
    1443:	89 55 c8             	mov    %edx,-0x38(%ebp)
    1446:	89 5c 24 04          	mov    %ebx,0x4(%esp)
    144a:	43                   	inc    %ebx
    144b:	e8 fc ff ff ff       	call   144c <_ZN8fs_fat328get_fileEPc+0x64>
    1450:	89 c7                	mov    %eax,%edi
    1452:	89 44 24 04          	mov    %eax,0x4(%esp)
    1456:	8b 45 d4             	mov    -0x2c(%ebp),%eax
    1459:	01 f0                	add    %esi,%eax
    145b:	89 04 24             	mov    %eax,(%esp)
    145e:	e8 fc ff ff ff       	call   145f <_ZN8fs_fat328get_fileEPc+0x77>
    1463:	89 3c 24             	mov    %edi,(%esp)
    1466:	e8 fc ff ff ff       	call   1467 <_ZN8fs_fat328get_fileEPc+0x7f>
    146b:	01 c6                	add    %eax,%esi
    146d:	8b 45 d4             	mov    -0x2c(%ebp),%eax
    1470:	c6 04 30 2f          	movb   $0x2f,(%eax,%esi,1)
    1474:	46                   	inc    %esi
    1475:	8b 55 c8             	mov    -0x38(%ebp),%edx
    1478:	8b 42 08             	mov    0x8(%edx),%eax
    147b:	48                   	dec    %eax
    147c:	39 d8                	cmp    %ebx,%eax
    147e:	77 c0                	ja     1440 <_ZN8fs_fat328get_fileEPc+0x58>
    1480:	89 d7                	mov    %edx,%edi
    1482:	89 44 24 04          	mov    %eax,0x4(%esp)
    1486:	be 01 00 00 00       	mov    $0x1,%esi
    148b:	89 3c 24             	mov    %edi,(%esp)
    148e:	e8 fc ff ff ff       	call   148f <_ZN8fs_fat328get_fileEPc+0xa7>
    1493:	8b 55 d0             	mov    -0x30(%ebp),%edx
    1496:	89 74 24 08          	mov    %esi,0x8(%esp)
    149a:	89 14 24             	mov    %edx,(%esp)
    149d:	89 45 cc             	mov    %eax,-0x34(%ebp)
    14a0:	8b 45 d4             	mov    -0x2c(%ebp),%eax
    14a3:	89 44 24 04          	mov    %eax,0x4(%esp)
    14a7:	e8 fc ff ff ff       	call   14a8 <_ZN8fs_fat328get_fileEPc+0xc0>
    14ac:	85 c0                	test   %eax,%eax
    14ae:	89 c2                	mov    %eax,%edx
    14b0:	0f 84 bd 00 00 00    	je     1573 <_ZN8fs_fat328get_fileEPc+0x18b>
    14b6:	8b 40 34             	mov    0x34(%eax),%eax
    14b9:	8b 58 08             	mov    0x8(%eax),%ebx
    14bc:	85 db                	test   %ebx,%ebx
    14be:	0f 84 af 00 00 00    	je     1573 <_ZN8fs_fat328get_fileEPc+0x18b>
    14c4:	89 7d d0             	mov    %edi,-0x30(%ebp)
    14c7:	31 db                	xor    %ebx,%ebx
    14c9:	89 d7                	mov    %edx,%edi
    14cb:	eb 10                	jmp    14dd <_ZN8fs_fat328get_fileEPc+0xf5>
    14cd:	8d 76 00             	lea    0x0(%esi),%esi
    14d0:	8b 47 34             	mov    0x34(%edi),%eax
    14d3:	43                   	inc    %ebx
    14d4:	39 58 08             	cmp    %ebx,0x8(%eax)
    14d7:	0f 86 93 00 00 00    	jbe    1570 <_ZN8fs_fat328get_fileEPc+0x188>
    14dd:	89 5c 24 04          	mov    %ebx,0x4(%esp)
    14e1:	89 04 24             	mov    %eax,(%esp)
    14e4:	e8 fc ff ff ff       	call   14e5 <_ZN8fs_fat328get_fileEPc+0xfd>
    14e9:	81 38 45 4c 49 46    	cmpl   $0x46494c45,(%eax)
    14ef:	89 c6                	mov    %eax,%esi
    14f1:	75 dd                	jne    14d0 <_ZN8fs_fat328get_fileEPc+0xe8>
    14f3:	8b 40 04             	mov    0x4(%eax),%eax
    14f6:	89 44 24 04          	mov    %eax,0x4(%esp)
    14fa:	8b 45 cc             	mov    -0x34(%ebp),%eax
    14fd:	89 04 24             	mov    %eax,(%esp)
    1500:	e8 fc ff ff ff       	call   1501 <_ZN8fs_fat328get_fileEPc+0x119>
    1505:	85 c0                	test   %eax,%eax
    1507:	75 c7                	jne    14d0 <_ZN8fs_fat328get_fileEPc+0xe8>
    1509:	8b 45 d4             	mov    -0x2c(%ebp),%eax
    150c:	8b 7d d0             	mov    -0x30(%ebp),%edi
    150f:	89 04 24             	mov    %eax,(%esp)
    1512:	e8 fc ff ff ff       	call   1513 <_ZN8fs_fat328get_fileEPc+0x12b>
    1517:	31 c0                	xor    %eax,%eax
    1519:	89 44 24 04          	mov    %eax,0x4(%esp)
    151d:	89 3c 24             	mov    %edi,(%esp)
    1520:	e8 fc ff ff ff       	call   1521 <_ZN8fs_fat328get_fileEPc+0x139>
    1525:	89 04 24             	mov    %eax,(%esp)
    1528:	e8 fc ff ff ff       	call   1529 <_ZN8fs_fat328get_fileEPc+0x141>
    152d:	31 c0                	xor    %eax,%eax
    152f:	89 44 24 04          	mov    %eax,0x4(%esp)
    1533:	89 3c 24             	mov    %edi,(%esp)
    1536:	e8 fc ff ff ff       	call   1537 <_ZN8fs_fat328get_fileEPc+0x14f>
    153b:	c7 04 24 18 00 00 00 	movl   $0x18,(%esp)
    1542:	e8 fc ff ff ff       	call   1543 <_ZN8fs_fat328get_fileEPc+0x15b>
    1547:	8b 56 14             	mov    0x14(%esi),%edx
    154a:	c6 40 08 01          	movb   $0x1,0x8(%eax)
    154e:	89 10                	mov    %edx,(%eax)
    1550:	c7 40 0c 00 00 00 00 	movl   $0x0,0xc(%eax)
    1557:	c7 40 10 00 00 00 00 	movl   $0x0,0x10(%eax)
    155e:	c6 40 14 01          	movb   $0x1,0x14(%eax)
    1562:	ff 46 2c             	incl   0x2c(%esi)
    1565:	eb 60                	jmp    15c7 <_ZN8fs_fat328get_fileEPc+0x1df>
    1567:	89 f6                	mov    %esi,%esi
    1569:	8d bc 27 00 00 00 00 	lea    0x0(%edi,%eiz,1),%edi
    1570:	8b 7d d0             	mov    -0x30(%ebp),%edi
    1573:	8b 45 cc             	mov    -0x34(%ebp),%eax
    1576:	c7 04 24 04 00 00 00 	movl   $0x4,(%esp)
    157d:	89 44 24 0c          	mov    %eax,0xc(%esp)
    1581:	8b 45 d4             	mov    -0x2c(%ebp),%eax
    1584:	89 44 24 08          	mov    %eax,0x8(%esp)
    1588:	b8 7c 21 00 00       	mov    $0x217c,%eax
    158d:	89 44 24 04          	mov    %eax,0x4(%esp)
    1591:	e8 fc ff ff ff       	call   1592 <_ZN8fs_fat328get_fileEPc+0x1aa>
    1596:	8b 45 d4             	mov    -0x2c(%ebp),%eax
    1599:	89 04 24             	mov    %eax,(%esp)
    159c:	e8 fc ff ff ff       	call   159d <_ZN8fs_fat328get_fileEPc+0x1b5>
    15a1:	31 d2                	xor    %edx,%edx
    15a3:	89 54 24 04          	mov    %edx,0x4(%esp)
    15a7:	89 3c 24             	mov    %edi,(%esp)
    15aa:	e8 fc ff ff ff       	call   15ab <_ZN8fs_fat328get_fileEPc+0x1c3>
    15af:	89 04 24             	mov    %eax,(%esp)
    15b2:	e8 fc ff ff ff       	call   15b3 <_ZN8fs_fat328get_fileEPc+0x1cb>
    15b7:	31 c9                	xor    %ecx,%ecx
    15b9:	89 4c 24 04          	mov    %ecx,0x4(%esp)
    15bd:	89 3c 24             	mov    %edi,(%esp)
    15c0:	e8 fc ff ff ff       	call   15c1 <_ZN8fs_fat328get_fileEPc+0x1d9>
    15c5:	31 c0                	xor    %eax,%eax
    15c7:	8b 55 e4             	mov    -0x1c(%ebp),%edx
    15ca:	33 15 00 00 00 00    	xor    0x0,%edx
    15d0:	75 08                	jne    15da <_ZN8fs_fat328get_fileEPc+0x1f2>
    15d2:	83 c4 3c             	add    $0x3c,%esp
    15d5:	5b                   	pop    %ebx
    15d6:	5e                   	pop    %esi
    15d7:	5f                   	pop    %edi
    15d8:	5d                   	pop    %ebp
    15d9:	c3                   	ret    
    15da:	e8 fc ff ff ff       	call   15db <_ZN8fs_fat328get_fileEPc+0x1f3>
    15df:	90                   	nop

000015e0 <_ZN8fs_fat3211read_handleEP14fs_file_handlemPv>:
    15e0:	55                   	push   %ebp
    15e1:	89 e5                	mov    %esp,%ebp
    15e3:	57                   	push   %edi
    15e4:	56                   	push   %esi
    15e5:	53                   	push   %ebx
    15e6:	83 ec 4c             	sub    $0x4c,%esp
    15e9:	8b 4d 08             	mov    0x8(%ebp),%ecx
    15ec:	8b 5d 0c             	mov    0xc(%ebp),%ebx
    15ef:	a1 00 00 00 00       	mov    0x0,%eax
    15f4:	89 45 e4             	mov    %eax,-0x1c(%ebp)
    15f7:	31 c0                	xor    %eax,%eax
    15f9:	c7 45 e0 00 00 00 00 	movl   $0x0,-0x20(%ebp)
    1600:	89 4d bc             	mov    %ecx,-0x44(%ebp)
    1603:	8b 4d 10             	mov    0x10(%ebp),%ecx
    1606:	89 5d c0             	mov    %ebx,-0x40(%ebp)
    1609:	8b 5d 14             	mov    0x14(%ebp),%ebx
    160c:	89 4d d4             	mov    %ecx,-0x2c(%ebp)
    160f:	8b 4d c0             	mov    -0x40(%ebp),%ecx
    1612:	89 5d d0             	mov    %ebx,-0x30(%ebp)
    1615:	8b 01                	mov    (%ecx),%eax
    1617:	89 04 24             	mov    %eax,(%esp)
    161a:	e8 fc ff ff ff       	call   161b <_ZN8fs_fat3211read_handleEP14fs_file_handlemPv+0x3b>
    161f:	81 38 45 4c 49 46    	cmpl   $0x46494c45,(%eax)
    1625:	89 c3                	mov    %eax,%ebx
    1627:	0f 85 03 02 00 00    	jne    1830 <_ZN8fs_fat3211read_handleEP14fs_file_handlemPv+0x250>
    162d:	8b 45 c0             	mov    -0x40(%ebp),%eax
    1630:	31 f6                	xor    %esi,%esi
    1632:	31 ff                	xor    %edi,%edi
    1634:	8b 50 10             	mov    0x10(%eax),%edx
    1637:	8b 48 0c             	mov    0xc(%eax),%ecx
    163a:	8b 43 3c             	mov    0x3c(%ebx),%eax
    163d:	89 55 c8             	mov    %edx,-0x38(%ebp)
    1640:	31 c2                	xor    %eax,%edx
    1642:	8b 43 38             	mov    0x38(%ebx),%eax
    1645:	31 c8                	xor    %ecx,%eax
    1647:	09 c2                	or     %eax,%edx
    1649:	0f 84 4f 01 00 00    	je     179e <_ZN8fs_fat3211read_handleEP14fs_file_handlemPv+0x1be>
    164f:	8b 45 bc             	mov    -0x44(%ebp),%eax
    1652:	8b 55 c8             	mov    -0x38(%ebp),%edx
    1655:	8b 80 84 02 00 00    	mov    0x284(%eax),%eax
    165b:	89 0c 24             	mov    %ecx,(%esp)
    165e:	89 54 24 04          	mov    %edx,0x4(%esp)
    1662:	89 44 24 08          	mov    %eax,0x8(%esp)
    1666:	31 c0                	xor    %eax,%eax
    1668:	89 44 24 0c          	mov    %eax,0xc(%esp)
    166c:	e8 fc ff ff ff       	call   166d <_ZN8fs_fat3211read_handleEP14fs_file_handlemPv+0x8d>
    1671:	8b 4d bc             	mov    -0x44(%ebp),%ecx
    1674:	89 c6                	mov    %eax,%esi
    1676:	8b 43 24             	mov    0x24(%ebx),%eax
    1679:	89 0c 24             	mov    %ecx,(%esp)
    167c:	25 ff ff ff 0f       	and    $0xfffffff,%eax
    1681:	89 44 24 04          	mov    %eax,0x4(%esp)
    1685:	e8 fc ff ff ff       	call   1686 <_ZN8fs_fat3211read_handleEP14fs_file_handlemPv+0xa6>
    168a:	8b 53 3c             	mov    0x3c(%ebx),%edx
    168d:	89 45 b8             	mov    %eax,-0x48(%ebp)
    1690:	8b 43 38             	mov    0x38(%ebx),%eax
    1693:	8b 5d c0             	mov    -0x40(%ebp),%ebx
    1696:	8b 4b 0c             	mov    0xc(%ebx),%ecx
    1699:	8b 5b 10             	mov    0x10(%ebx),%ebx
    169c:	89 4d c8             	mov    %ecx,-0x38(%ebp)
    169f:	89 c1                	mov    %eax,%ecx
    16a1:	2b 4d c8             	sub    -0x38(%ebp),%ecx
    16a4:	89 5d cc             	mov    %ebx,-0x34(%ebp)
    16a7:	89 d3                	mov    %edx,%ebx
    16a9:	1b 5d cc             	sbb    -0x34(%ebp),%ebx
    16ac:	83 fb 00             	cmp    $0x0,%ebx
    16af:	0f 86 0b 01 00 00    	jbe    17c0 <_ZN8fs_fat3211read_handleEP14fs_file_handlemPv+0x1e0>
    16b5:	8b 5d bc             	mov    -0x44(%ebp),%ebx
    16b8:	31 d2                	xor    %edx,%edx
    16ba:	8b 8b 84 02 00 00    	mov    0x284(%ebx),%ecx
    16c0:	8b 5d d4             	mov    -0x2c(%ebp),%ebx
    16c3:	8d 44 19 ff          	lea    -0x1(%ecx,%ebx,1),%eax
    16c7:	f7 f1                	div    %ecx
    16c9:	01 f0                	add    %esi,%eax
    16cb:	39 c6                	cmp    %eax,%esi
    16cd:	89 45 c4             	mov    %eax,-0x3c(%ebp)
    16d0:	0f 83 70 01 00 00    	jae    1846 <_ZN8fs_fat3211read_handleEP14fs_file_handlemPv+0x266>
    16d6:	89 f3                	mov    %esi,%ebx
    16d8:	31 ff                	xor    %edi,%edi
    16da:	31 f6                	xor    %esi,%esi
    16dc:	89 75 c8             	mov    %esi,-0x38(%ebp)
    16df:	89 de                	mov    %ebx,%esi
    16e1:	8b 5d bc             	mov    -0x44(%ebp),%ebx
    16e4:	89 7d cc             	mov    %edi,-0x34(%ebp)
    16e7:	8b 7d b8             	mov    -0x48(%ebp),%edi
    16ea:	eb 4a                	jmp    1736 <_ZN8fs_fat3211read_handleEP14fs_file_handlemPv+0x156>
    16ec:	8d 74 26 00          	lea    0x0(%esi,%eiz,1),%esi
    16f0:	8b 83 84 02 00 00    	mov    0x284(%ebx),%eax
    16f6:	3b 45 d4             	cmp    -0x2c(%ebp),%eax
    16f9:	0f 83 e1 00 00 00    	jae    17e0 <_ZN8fs_fat3211read_handleEP14fs_file_handlemPv+0x200>
    16ff:	89 44 24 08          	mov    %eax,0x8(%esp)
    1703:	8b 55 d0             	mov    -0x30(%ebp),%edx
    1706:	29 45 d4             	sub    %eax,-0x2c(%ebp)
    1709:	8b 83 8c 02 00 00    	mov    0x28c(%ebx),%eax
    170f:	89 14 24             	mov    %edx,(%esp)
    1712:	89 44 24 04          	mov    %eax,0x4(%esp)
    1716:	e8 fc ff ff ff       	call   1717 <_ZN8fs_fat3211read_handleEP14fs_file_handlemPv+0x137>
    171b:	8b 8b 84 02 00 00    	mov    0x284(%ebx),%ecx
    1721:	31 d2                	xor    %edx,%edx
    1723:	01 4d c8             	add    %ecx,-0x38(%ebp)
    1726:	11 55 cc             	adc    %edx,-0x34(%ebp)
    1729:	46                   	inc    %esi
    172a:	01 4d d0             	add    %ecx,-0x30(%ebp)
    172d:	3b 75 c4             	cmp    -0x3c(%ebp),%esi
    1730:	0f 83 ea 00 00 00    	jae    1820 <_ZN8fs_fat3211read_handleEP14fs_file_handlemPv+0x240>
    1736:	8d 45 e0             	lea    -0x20(%ebp),%eax
    1739:	89 44 24 0c          	mov    %eax,0xc(%esp)
    173d:	8b 83 8c 02 00 00    	mov    0x28c(%ebx),%eax
    1743:	89 44 24 08          	mov    %eax,0x8(%esp)
    1747:	8b 04 b7             	mov    (%edi,%esi,4),%eax
    174a:	89 1c 24             	mov    %ebx,(%esp)
    174d:	89 44 24 04          	mov    %eax,0x4(%esp)
    1751:	e8 fc ff ff ff       	call   1752 <_ZN8fs_fat3211read_handleEP14fs_file_handlemPv+0x172>
    1756:	85 c0                	test   %eax,%eax
    1758:	75 96                	jne    16f0 <_ZN8fs_fat3211read_handleEP14fs_file_handlemPv+0x110>
    175a:	8b 45 e0             	mov    -0x20(%ebp),%eax
    175d:	8b 75 c8             	mov    -0x38(%ebp),%esi
    1760:	8b 7d cc             	mov    -0x34(%ebp),%edi
    1763:	c7 04 24 04 00 00 00 	movl   $0x4,(%esp)
    176a:	89 44 24 08          	mov    %eax,0x8(%esp)
    176e:	b8 9c 21 00 00       	mov    $0x219c,%eax
    1773:	89 44 24 04          	mov    %eax,0x4(%esp)
    1777:	e8 fc ff ff ff       	call   1778 <_ZN8fs_fat3211read_handleEP14fs_file_handlemPv+0x198>
    177c:	8b 5d c0             	mov    -0x40(%ebp),%ebx
    177f:	89 f0                	mov    %esi,%eax
    1781:	89 fa                	mov    %edi,%edx
    1783:	8b 4b 0c             	mov    0xc(%ebx),%ecx
    1786:	8b 5b 10             	mov    0x10(%ebx),%ebx
    1789:	89 4d c8             	mov    %ecx,-0x38(%ebp)
    178c:	89 5d cc             	mov    %ebx,-0x34(%ebp)
    178f:	03 45 c8             	add    -0x38(%ebp),%eax
    1792:	8b 4d c0             	mov    -0x40(%ebp),%ecx
    1795:	13 55 cc             	adc    -0x34(%ebp),%edx
    1798:	89 41 0c             	mov    %eax,0xc(%ecx)
    179b:	89 51 10             	mov    %edx,0x10(%ecx)
    179e:	8b 5d e4             	mov    -0x1c(%ebp),%ebx
    17a1:	33 1d 00 00 00 00    	xor    0x0,%ebx
    17a7:	89 f0                	mov    %esi,%eax
    17a9:	89 fa                	mov    %edi,%edx
    17ab:	0f 85 a2 00 00 00    	jne    1853 <_ZN8fs_fat3211read_handleEP14fs_file_handlemPv+0x273>
    17b1:	83 c4 4c             	add    $0x4c,%esp
    17b4:	5b                   	pop    %ebx
    17b5:	5e                   	pop    %esi
    17b6:	5f                   	pop    %edi
    17b7:	5d                   	pop    %ebp
    17b8:	c3                   	ret    
    17b9:	8d b4 26 00 00 00 00 	lea    0x0(%esi,%eiz,1),%esi
    17c0:	3b 4d d4             	cmp    -0x2c(%ebp),%ecx
    17c3:	0f 83 ec fe ff ff    	jae    16b5 <_ZN8fs_fat3211read_handleEP14fs_file_handlemPv+0xd5>
    17c9:	89 c1                	mov    %eax,%ecx
    17cb:	8b 45 c8             	mov    -0x38(%ebp),%eax
    17ce:	29 c1                	sub    %eax,%ecx
    17d0:	89 4d d4             	mov    %ecx,-0x2c(%ebp)
    17d3:	e9 dd fe ff ff       	jmp    16b5 <_ZN8fs_fat3211read_handleEP14fs_file_handlemPv+0xd5>
    17d8:	90                   	nop
    17d9:	8d b4 26 00 00 00 00 	lea    0x0(%esi,%eiz,1),%esi
    17e0:	8b 45 d4             	mov    -0x2c(%ebp),%eax
    17e3:	31 d2                	xor    %edx,%edx
    17e5:	8b 75 c8             	mov    -0x38(%ebp),%esi
    17e8:	8b 4d d4             	mov    -0x2c(%ebp),%ecx
    17eb:	8b 7d cc             	mov    -0x34(%ebp),%edi
    17ee:	8b 5d bc             	mov    -0x44(%ebp),%ebx
    17f1:	01 c6                	add    %eax,%esi
    17f3:	89 4c 24 08          	mov    %ecx,0x8(%esp)
    17f7:	11 d7                	adc    %edx,%edi
    17f9:	8b 55 d0             	mov    -0x30(%ebp),%edx
    17fc:	8b 83 8c 02 00 00    	mov    0x28c(%ebx),%eax
    1802:	89 14 24             	mov    %edx,(%esp)
    1805:	89 44 24 04          	mov    %eax,0x4(%esp)
    1809:	e8 fc ff ff ff       	call   180a <_ZN8fs_fat3211read_handleEP14fs_file_handlemPv+0x22a>
    180e:	e9 69 ff ff ff       	jmp    177c <_ZN8fs_fat3211read_handleEP14fs_file_handlemPv+0x19c>
    1813:	8d b6 00 00 00 00    	lea    0x0(%esi),%esi
    1819:	8d bc 27 00 00 00 00 	lea    0x0(%edi,%eiz,1),%edi
    1820:	8b 75 c8             	mov    -0x38(%ebp),%esi
    1823:	8b 7d cc             	mov    -0x34(%ebp),%edi
    1826:	e9 51 ff ff ff       	jmp    177c <_ZN8fs_fat3211read_handleEP14fs_file_handlemPv+0x19c>
    182b:	90                   	nop
    182c:	8d 74 26 00          	lea    0x0(%esi,%eiz,1),%esi
    1830:	8b 5d c0             	mov    -0x40(%ebp),%ebx
    1833:	be ff ff ff ff       	mov    $0xffffffff,%esi
    1838:	bf ff ff ff ff       	mov    $0xffffffff,%edi
    183d:	c6 43 14 00          	movb   $0x0,0x14(%ebx)
    1841:	e9 58 ff ff ff       	jmp    179e <_ZN8fs_fat3211read_handleEP14fs_file_handlemPv+0x1be>
    1846:	31 c0                	xor    %eax,%eax
    1848:	31 d2                	xor    %edx,%edx
    184a:	31 f6                	xor    %esi,%esi
    184c:	31 ff                	xor    %edi,%edi
    184e:	e9 3c ff ff ff       	jmp    178f <_ZN8fs_fat3211read_handleEP14fs_file_handlemPv+0x1af>
    1853:	e8 fc ff ff ff       	call   1854 <_ZN8fs_fat3211read_handleEP14fs_file_handlemPv+0x274>
	...

00001860 <_ZL17fat32_part_verifyP18hal_disk_partition>:
    1860:	55                   	push   %ebp
    1861:	89 e5                	mov    %esp,%ebp
    1863:	83 ec 18             	sub    $0x18,%esp
    1866:	a1 00 00 00 00       	mov    0x0,%eax
    186b:	89 45 f4             	mov    %eax,-0xc(%ebp)
    186e:	31 c0                	xor    %eax,%eax
    1870:	8b 45 08             	mov    0x8(%ebp),%eax
    1873:	80 38 0c             	cmpb   $0xc,(%eax)
    1876:	0f 94 c0             	sete   %al
    1879:	8b 55 f4             	mov    -0xc(%ebp),%edx
    187c:	33 15 00 00 00 00    	xor    0x0,%edx
    1882:	75 02                	jne    1886 <_ZL17fat32_part_verifyP18hal_disk_partition+0x26>
    1884:	c9                   	leave  
    1885:	c3                   	ret    
    1886:	e8 fc ff ff ff       	call   1887 <_ZL17fat32_part_verifyP18hal_disk_partition+0x27>
    188b:	90                   	nop

0000188c <_ZL16fat32_file_writePvS_mP14fs_file_handle>:
    188c:	55                   	push   %ebp
    188d:	ba bb 21 00 00       	mov    $0x21bb,%edx
    1892:	89 e5                	mov    %esp,%ebp
    1894:	83 ec 28             	sub    $0x28,%esp
    1897:	a1 00 00 00 00       	mov    0x0,%eax
    189c:	89 45 f4             	mov    %eax,-0xc(%ebp)
    189f:	31 c0                	xor    %eax,%eax
    18a1:	b8 e0 1d 00 00       	mov    $0x1de0,%eax
    18a6:	89 54 24 04          	mov    %edx,0x4(%esp)
    18aa:	89 44 24 08          	mov    %eax,0x8(%esp)
    18ae:	c7 04 24 04 00 00 00 	movl   $0x4,(%esp)
    18b5:	e8 fc ff ff ff       	call   18b6 <_ZL16fat32_file_writePvS_mP14fs_file_handle+0x2a>
    18ba:	b8 ff ff ff ff       	mov    $0xffffffff,%eax
    18bf:	ba ff ff ff ff       	mov    $0xffffffff,%edx
    18c4:	8b 4d f4             	mov    -0xc(%ebp),%ecx
    18c7:	33 0d 00 00 00 00    	xor    0x0,%ecx
    18cd:	75 02                	jne    18d1 <_ZL16fat32_file_writePvS_mP14fs_file_handle+0x45>
    18cf:	c9                   	leave  
    18d0:	c3                   	ret    
    18d1:	e8 fc ff ff ff       	call   18d2 <_ZL16fat32_file_writePvS_mP14fs_file_handle+0x46>
    18d6:	66 90                	xchg   %ax,%ax

000018d8 <_ZL17fat32_file_updatePvP7fs_file>:
    18d8:	55                   	push   %ebp
    18d9:	b9 40 1e 00 00       	mov    $0x1e40,%ecx
    18de:	89 e5                	mov    %esp,%ebp
    18e0:	83 ec 28             	sub    $0x28,%esp
    18e3:	a1 00 00 00 00       	mov    0x0,%eax
    18e8:	89 45 f4             	mov    %eax,-0xc(%ebp)
    18eb:	31 c0                	xor    %eax,%eax
    18ed:	b8 bb 21 00 00       	mov    $0x21bb,%eax
    18f2:	89 4c 24 08          	mov    %ecx,0x8(%esp)
    18f6:	89 44 24 04          	mov    %eax,0x4(%esp)
    18fa:	c7 04 24 04 00 00 00 	movl   $0x4,(%esp)
    1901:	e8 fc ff ff ff       	call   1902 <_ZL17fat32_file_updatePvP7fs_file+0x2a>
    1906:	8b 45 f4             	mov    -0xc(%ebp),%eax
    1909:	33 05 00 00 00 00    	xor    0x0,%eax
    190f:	75 02                	jne    1913 <_ZL17fat32_file_updatePvP7fs_file+0x3b>
    1911:	c9                   	leave  
    1912:	c3                   	ret    
    1913:	e8 fc ff ff ff       	call   1914 <_ZL17fat32_file_updatePvP7fs_file+0x3c>

00001918 <_ZL16fat32_file_closePvP7fs_file>:
    1918:	55                   	push   %ebp
    1919:	89 e5                	mov    %esp,%ebp
    191b:	83 ec 28             	sub    $0x28,%esp
    191e:	a1 00 00 00 00       	mov    0x0,%eax
    1923:	89 45 f4             	mov    %eax,-0xc(%ebp)
    1926:	31 c0                	xor    %eax,%eax
    1928:	b8 80 1e 00 00       	mov    $0x1e80,%eax
    192d:	89 44 24 08          	mov    %eax,0x8(%esp)
    1931:	b8 bb 21 00 00       	mov    $0x21bb,%eax
    1936:	89 44 24 04          	mov    %eax,0x4(%esp)
    193a:	c7 04 24 04 00 00 00 	movl   $0x4,(%esp)
    1941:	e8 fc ff ff ff       	call   1942 <_ZL16fat32_file_closePvP7fs_file+0x2a>
    1946:	8b 45 f4             	mov    -0xc(%ebp),%eax
    1949:	33 05 00 00 00 00    	xor    0x0,%eax
    194f:	75 02                	jne    1953 <_ZL16fat32_file_closePvP7fs_file+0x3b>
    1951:	c9                   	leave  
    1952:	c3                   	ret    
    1953:	e8 fc ff ff ff       	call   1954 <_ZL16fat32_file_closePvP7fs_file+0x3c>

00001958 <_ZL12fat32_unlinkPvPc>:
    1958:	55                   	push   %ebp
    1959:	89 e5                	mov    %esp,%ebp
    195b:	83 ec 28             	sub    $0x28,%esp
    195e:	a1 00 00 00 00       	mov    0x0,%eax
    1963:	89 45 f4             	mov    %eax,-0xc(%ebp)
    1966:	31 c0                	xor    %eax,%eax
    1968:	b8 ac 1e 00 00       	mov    $0x1eac,%eax
    196d:	89 44 24 08          	mov    %eax,0x8(%esp)
    1971:	b8 bb 21 00 00       	mov    $0x21bb,%eax
    1976:	89 44 24 04          	mov    %eax,0x4(%esp)
    197a:	c7 04 24 04 00 00 00 	movl   $0x4,(%esp)
    1981:	e8 fc ff ff ff       	call   1982 <_ZL12fat32_unlinkPvPc+0x2a>
    1986:	b8 ff ff ff ff       	mov    $0xffffffff,%eax
    198b:	8b 55 f4             	mov    -0xc(%ebp),%edx
    198e:	33 15 00 00 00 00    	xor    0x0,%edx
    1994:	75 02                	jne    1998 <_ZL12fat32_unlinkPvPc+0x40>
    1996:	c9                   	leave  
    1997:	c3                   	ret    
    1998:	e8 fc ff ff ff       	call   1999 <_ZL12fat32_unlinkPvPc+0x41>
    199d:	8d 76 00             	lea    0x0(%esi),%esi

000019a0 <_ZL22fat32_create_directoryPvPc>:
    19a0:	55                   	push   %ebp
    19a1:	ba bb 21 00 00       	mov    $0x21bb,%edx
    19a6:	89 e5                	mov    %esp,%ebp
    19a8:	83 ec 28             	sub    $0x28,%esp
    19ab:	a1 00 00 00 00       	mov    0x0,%eax
    19b0:	89 45 f4             	mov    %eax,-0xc(%ebp)
    19b3:	31 c0                	xor    %eax,%eax
    19b5:	b8 e0 1e 00 00       	mov    $0x1ee0,%eax
    19ba:	89 54 24 04          	mov    %edx,0x4(%esp)
    19be:	89 44 24 08          	mov    %eax,0x8(%esp)
    19c2:	c7 04 24 04 00 00 00 	movl   $0x4,(%esp)
    19c9:	e8 fc ff ff ff       	call   19ca <_ZL22fat32_create_directoryPvPc+0x2a>
    19ce:	b8 ff ff ff ff       	mov    $0xffffffff,%eax
    19d3:	8b 55 f4             	mov    -0xc(%ebp),%edx
    19d6:	33 15 00 00 00 00    	xor    0x0,%edx
    19dc:	75 02                	jne    19e0 <_ZL22fat32_create_directoryPvPc+0x40>
    19de:	c9                   	leave  
    19df:	c3                   	ret    
    19e0:	e8 fc ff ff ff       	call   19e1 <_ZL22fat32_create_directoryPvPc+0x41>
    19e5:	8d 76 00             	lea    0x0(%esi),%esi

000019e8 <_ZL15fat32_file_readPvS_mP14fs_file_handle>:
    19e8:	55                   	push   %ebp
    19e9:	89 e5                	mov    %esp,%ebp
    19eb:	83 ec 18             	sub    $0x18,%esp
    19ee:	8b 45 14             	mov    0x14(%ebp),%eax
    19f1:	89 75 fc             	mov    %esi,-0x4(%ebp)
    19f4:	8b 4d 08             	mov    0x8(%ebp),%ecx
    19f7:	8b 35 00 00 00 00    	mov    0x0,%esi
    19fd:	89 75 f4             	mov    %esi,-0xc(%ebp)
    1a00:	31 f6                	xor    %esi,%esi
    1a02:	8b 55 0c             	mov    0xc(%ebp),%edx
    1a05:	89 5d f8             	mov    %ebx,-0x8(%ebp)
    1a08:	8b 5d 10             	mov    0x10(%ebp),%ebx
    1a0b:	85 c0                	test   %eax,%eax
    1a0d:	74 31                	je     1a40 <_ZL15fat32_file_readPvS_mP14fs_file_handle+0x58>
    1a0f:	85 d2                	test   %edx,%edx
    1a11:	74 2d                	je     1a40 <_ZL15fat32_file_readPvS_mP14fs_file_handle+0x58>
    1a13:	8b 75 f4             	mov    -0xc(%ebp),%esi
    1a16:	33 35 00 00 00 00    	xor    0x0,%esi
    1a1c:	75 41                	jne    1a5f <_ZL15fat32_file_readPvS_mP14fs_file_handle+0x77>
    1a1e:	89 5d 10             	mov    %ebx,0x10(%ebp)
    1a21:	8b 75 fc             	mov    -0x4(%ebp),%esi
    1a24:	89 55 14             	mov    %edx,0x14(%ebp)
    1a27:	8b 5d f8             	mov    -0x8(%ebp),%ebx
    1a2a:	89 45 0c             	mov    %eax,0xc(%ebp)
    1a2d:	89 4d 08             	mov    %ecx,0x8(%ebp)
    1a30:	89 ec                	mov    %ebp,%esp
    1a32:	5d                   	pop    %ebp
    1a33:	e9 fc ff ff ff       	jmp    1a34 <_ZL15fat32_file_readPvS_mP14fs_file_handle+0x4c>
    1a38:	90                   	nop
    1a39:	8d b4 26 00 00 00 00 	lea    0x0(%esi,%eiz,1),%esi
    1a40:	8b 4d f4             	mov    -0xc(%ebp),%ecx
    1a43:	33 0d 00 00 00 00    	xor    0x0,%ecx
    1a49:	b8 ff ff ff ff       	mov    $0xffffffff,%eax
    1a4e:	ba ff ff ff ff       	mov    $0xffffffff,%edx
    1a53:	75 0a                	jne    1a5f <_ZL15fat32_file_readPvS_mP14fs_file_handle+0x77>
    1a55:	8b 5d f8             	mov    -0x8(%ebp),%ebx
    1a58:	8b 75 fc             	mov    -0x4(%ebp),%esi
    1a5b:	89 ec                	mov    %ebp,%esp
    1a5d:	5d                   	pop    %ebp
    1a5e:	c3                   	ret    
    1a5f:	e8 fc ff ff ff       	call   1a60 <_ZL15fat32_file_readPvS_mP14fs_file_handle+0x78>

00001a64 <_ZL15fat32_file_openPvPc19fs_file_open_mode_t>:
    1a64:	55                   	push   %ebp
    1a65:	89 e5                	mov    %esp,%ebp
    1a67:	53                   	push   %ebx
    1a68:	83 ec 24             	sub    $0x24,%esp
    1a6b:	8b 55 0c             	mov    0xc(%ebp),%edx
    1a6e:	a1 00 00 00 00       	mov    0x0,%eax
    1a73:	89 45 f4             	mov    %eax,-0xc(%ebp)
    1a76:	31 c0                	xor    %eax,%eax
    1a78:	8b 4d 08             	mov    0x8(%ebp),%ecx
    1a7b:	8b 5d 10             	mov    0x10(%ebp),%ebx
    1a7e:	85 d2                	test   %edx,%edx
    1a80:	74 0f                	je     1a91 <_ZL15fat32_file_openPvPc19fs_file_open_mode_t+0x2d>
    1a82:	89 54 24 04          	mov    %edx,0x4(%esp)
    1a86:	89 0c 24             	mov    %ecx,(%esp)
    1a89:	e8 fc ff ff ff       	call   1a8a <_ZL15fat32_file_openPvPc19fs_file_open_mode_t+0x26>
    1a8e:	89 58 04             	mov    %ebx,0x4(%eax)
    1a91:	8b 55 f4             	mov    -0xc(%ebp),%edx
    1a94:	33 15 00 00 00 00    	xor    0x0,%edx
    1a9a:	75 06                	jne    1aa2 <_ZL15fat32_file_openPvPc19fs_file_open_mode_t+0x3e>
    1a9c:	83 c4 24             	add    $0x24,%esp
    1a9f:	5b                   	pop    %ebx
    1aa0:	5d                   	pop    %ebp
    1aa1:	c3                   	ret    
    1aa2:	e8 fc ff ff ff       	call   1aa3 <_ZL15fat32_file_openPvPc19fs_file_open_mode_t+0x3f>
    1aa7:	90                   	nop

00001aa8 <_ZL20fat32_list_directoryPvPc>:
    1aa8:	55                   	push   %ebp
    1aa9:	89 e5                	mov    %esp,%ebp
    1aab:	83 ec 28             	sub    $0x28,%esp
    1aae:	8b 55 0c             	mov    0xc(%ebp),%edx
    1ab1:	a1 00 00 00 00       	mov    0x0,%eax
    1ab6:	89 45 f4             	mov    %eax,-0xc(%ebp)
    1ab9:	31 c0                	xor    %eax,%eax
    1abb:	8b 4d 08             	mov    0x8(%ebp),%ecx
    1abe:	85 d2                	test   %edx,%edx
    1ac0:	74 15                	je     1ad7 <_ZL20fat32_list_directoryPvPc+0x2f>
    1ac2:	b8 01 00 00 00       	mov    $0x1,%eax
    1ac7:	89 44 24 08          	mov    %eax,0x8(%esp)
    1acb:	89 54 24 04          	mov    %edx,0x4(%esp)
    1acf:	89 0c 24             	mov    %ecx,(%esp)
    1ad2:	e8 fc ff ff ff       	call   1ad3 <_ZL20fat32_list_directoryPvPc+0x2b>
    1ad7:	8b 55 f4             	mov    -0xc(%ebp),%edx
    1ada:	33 15 00 00 00 00    	xor    0x0,%edx
    1ae0:	75 02                	jne    1ae4 <_ZL20fat32_list_directoryPvPc+0x3c>
    1ae2:	c9                   	leave  
    1ae3:	c3                   	ret    
    1ae4:	e8 fc ff ff ff       	call   1ae5 <_ZL20fat32_list_directoryPvPc+0x3d>
    1ae9:	8d 76 00             	lea    0x0(%esi),%esi

00001aec <_ZL23fat32_create_superblockP18hal_disk_partitionP8hal_disk>:
    1aec:	55                   	push   %ebp
    1aed:	89 e5                	mov    %esp,%ebp
    1aef:	83 ec 38             	sub    $0x38,%esp
    1af2:	89 5d f8             	mov    %ebx,-0x8(%ebp)
    1af5:	8b 5d 08             	mov    0x8(%ebp),%ebx
    1af8:	89 75 fc             	mov    %esi,-0x4(%ebp)
    1afb:	8b 75 0c             	mov    0xc(%ebp),%esi
    1afe:	a1 00 00 00 00       	mov    0x0,%eax
    1b03:	89 45 f4             	mov    %eax,-0xc(%ebp)
    1b06:	31 c0                	xor    %eax,%eax
    1b08:	80 3b 0c             	cmpb   $0xc,(%ebx)
    1b0b:	75 22                	jne    1b2f <_ZL23fat32_create_superblockP18hal_disk_partitionP8hal_disk+0x43>
    1b0d:	c7 04 24 90 02 00 00 	movl   $0x290,(%esp)
    1b14:	e8 fc ff ff ff       	call   1b15 <_ZL23fat32_create_superblockP18hal_disk_partitionP8hal_disk+0x29>
    1b19:	89 74 24 08          	mov    %esi,0x8(%esp)
    1b1d:	89 5c 24 04          	mov    %ebx,0x4(%esp)
    1b21:	89 04 24             	mov    %eax,(%esp)
    1b24:	89 45 e4             	mov    %eax,-0x1c(%ebp)
    1b27:	e8 fc ff ff ff       	call   1b28 <_ZL23fat32_create_superblockP18hal_disk_partitionP8hal_disk+0x3c>
    1b2c:	8b 45 e4             	mov    -0x1c(%ebp),%eax
    1b2f:	8b 55 f4             	mov    -0xc(%ebp),%edx
    1b32:	33 15 00 00 00 00    	xor    0x0,%edx
    1b38:	75 0a                	jne    1b44 <_ZL23fat32_create_superblockP18hal_disk_partitionP8hal_disk+0x58>
    1b3a:	8b 5d f8             	mov    -0x8(%ebp),%ebx
    1b3d:	8b 75 fc             	mov    -0x4(%ebp),%esi
    1b40:	89 ec                	mov    %ebp,%esp
    1b42:	5d                   	pop    %ebp
    1b43:	c3                   	ret    
    1b44:	e8 fc ff ff ff       	call   1b45 <_ZL23fat32_create_superblockP18hal_disk_partitionP8hal_disk+0x59>
    1b49:	8d 76 00             	lea    0x0(%esi),%esi

00001b4c <start>:
    1b4c:	55                   	push   %ebp
    1b4d:	89 e5                	mov    %esp,%ebp
    1b4f:	83 ec 28             	sub    $0x28,%esp
    1b52:	a1 00 00 00 00       	mov    0x0,%eax
    1b57:	89 45 f4             	mov    %eax,-0xc(%ebp)
    1b5a:	31 c0                	xor    %eax,%eax
    1b5c:	c7 04 24 20 1d 00 00 	movl   $0x1d20,(%esp)
    1b63:	e8 fc ff ff ff       	call   1b64 <start+0x18>
    1b68:	b8 80 1d 00 00       	mov    $0x1d80,%eax
    1b6d:	8b 55 f4             	mov    -0xc(%ebp),%edx
    1b70:	33 15 00 00 00 00    	xor    0x0,%edx
    1b76:	75 02                	jne    1b7a <start+0x2e>
    1b78:	c9                   	leave  
    1b79:	c3                   	ret    
    1b7a:	e8 fc ff ff ff       	call   1b7b <start+0x2f>
	...

00001b80 <__umoddi3>:
    1b80:	83 ec 1c             	sub    $0x1c,%esp
    1b83:	89 6c 24 18          	mov    %ebp,0x18(%esp)
    1b87:	8b 6c 24 2c          	mov    0x2c(%esp),%ebp
    1b8b:	8b 44 24 20          	mov    0x20(%esp),%eax
    1b8f:	89 74 24 10          	mov    %esi,0x10(%esp)
    1b93:	8b 4c 24 28          	mov    0x28(%esp),%ecx
    1b97:	8b 74 24 24          	mov    0x24(%esp),%esi
    1b9b:	85 ed                	test   %ebp,%ebp
    1b9d:	89 7c 24 14          	mov    %edi,0x14(%esp)
    1ba1:	89 44 24 08          	mov    %eax,0x8(%esp)
    1ba5:	89 cf                	mov    %ecx,%edi
    1ba7:	89 04 24             	mov    %eax,(%esp)
    1baa:	89 f2                	mov    %esi,%edx
    1bac:	75 22                	jne    1bd0 <__umoddi3+0x50>
    1bae:	39 f1                	cmp    %esi,%ecx
    1bb0:	76 5e                	jbe    1c10 <__umoddi3+0x90>
    1bb2:	f7 f1                	div    %ecx
    1bb4:	89 d0                	mov    %edx,%eax
    1bb6:	31 d2                	xor    %edx,%edx
    1bb8:	8b 74 24 10          	mov    0x10(%esp),%esi
    1bbc:	8b 7c 24 14          	mov    0x14(%esp),%edi
    1bc0:	8b 6c 24 18          	mov    0x18(%esp),%ebp
    1bc4:	83 c4 1c             	add    $0x1c,%esp
    1bc7:	c3                   	ret    
    1bc8:	90                   	nop
    1bc9:	8d b4 26 00 00 00 00 	lea    0x0(%esi,%eiz,1),%esi
    1bd0:	39 f5                	cmp    %esi,%ebp
    1bd2:	77 5c                	ja     1c30 <__umoddi3+0xb0>
    1bd4:	0f bd c5             	bsr    %ebp,%eax
    1bd7:	83 f0 1f             	xor    $0x1f,%eax
    1bda:	89 44 24 04          	mov    %eax,0x4(%esp)
    1bde:	75 70                	jne    1c50 <__umoddi3+0xd0>
    1be0:	3b 0c 24             	cmp    (%esp),%ecx
    1be3:	0f 87 27 01 00 00    	ja     1d10 <__umoddi3+0x190>
    1be9:	89 f2                	mov    %esi,%edx
    1beb:	8b 34 24             	mov    (%esp),%esi
    1bee:	29 ce                	sub    %ecx,%esi
    1bf0:	19 ea                	sbb    %ebp,%edx
    1bf2:	89 34 24             	mov    %esi,(%esp)
    1bf5:	8b 04 24             	mov    (%esp),%eax
    1bf8:	8b 74 24 10          	mov    0x10(%esp),%esi
    1bfc:	8b 7c 24 14          	mov    0x14(%esp),%edi
    1c00:	8b 6c 24 18          	mov    0x18(%esp),%ebp
    1c04:	83 c4 1c             	add    $0x1c,%esp
    1c07:	c3                   	ret    
    1c08:	90                   	nop
    1c09:	8d b4 26 00 00 00 00 	lea    0x0(%esi,%eiz,1),%esi
    1c10:	85 c9                	test   %ecx,%ecx
    1c12:	75 0b                	jne    1c1f <__umoddi3+0x9f>
    1c14:	b8 01 00 00 00       	mov    $0x1,%eax
    1c19:	31 d2                	xor    %edx,%edx
    1c1b:	f7 f1                	div    %ecx
    1c1d:	89 c1                	mov    %eax,%ecx
    1c1f:	89 f0                	mov    %esi,%eax
    1c21:	31 d2                	xor    %edx,%edx
    1c23:	f7 f1                	div    %ecx
    1c25:	8b 04 24             	mov    (%esp),%eax
    1c28:	f7 f1                	div    %ecx
    1c2a:	eb 88                	jmp    1bb4 <__umoddi3+0x34>
    1c2c:	8d 74 26 00          	lea    0x0(%esi,%eiz,1),%esi
    1c30:	89 f2                	mov    %esi,%edx
    1c32:	8b 74 24 10          	mov    0x10(%esp),%esi
    1c36:	8b 7c 24 14          	mov    0x14(%esp),%edi
    1c3a:	8b 6c 24 18          	mov    0x18(%esp),%ebp
    1c3e:	83 c4 1c             	add    $0x1c,%esp
    1c41:	c3                   	ret    
    1c42:	8d b4 26 00 00 00 00 	lea    0x0(%esi,%eiz,1),%esi
    1c49:	8d bc 27 00 00 00 00 	lea    0x0(%edi,%eiz,1),%edi
    1c50:	0f b6 4c 24 04       	movzbl 0x4(%esp),%ecx
    1c55:	89 e8                	mov    %ebp,%eax
    1c57:	bd 20 00 00 00       	mov    $0x20,%ebp
    1c5c:	2b 6c 24 04          	sub    0x4(%esp),%ebp
    1c60:	89 fa                	mov    %edi,%edx
    1c62:	d3 e0                	shl    %cl,%eax
    1c64:	89 e9                	mov    %ebp,%ecx
    1c66:	d3 ea                	shr    %cl,%edx
    1c68:	0f b6 4c 24 04       	movzbl 0x4(%esp),%ecx
    1c6d:	09 c2                	or     %eax,%edx
    1c6f:	8b 44 24 08          	mov    0x8(%esp),%eax
    1c73:	89 14 24             	mov    %edx,(%esp)
    1c76:	89 f2                	mov    %esi,%edx
    1c78:	d3 e7                	shl    %cl,%edi
    1c7a:	89 e9                	mov    %ebp,%ecx
    1c7c:	d3 ea                	shr    %cl,%edx
    1c7e:	0f b6 4c 24 04       	movzbl 0x4(%esp),%ecx
    1c83:	89 7c 24 0c          	mov    %edi,0xc(%esp)
    1c87:	d3 e6                	shl    %cl,%esi
    1c89:	89 e9                	mov    %ebp,%ecx
    1c8b:	d3 e8                	shr    %cl,%eax
    1c8d:	0f b6 4c 24 04       	movzbl 0x4(%esp),%ecx
    1c92:	09 f0                	or     %esi,%eax
    1c94:	8b 74 24 08          	mov    0x8(%esp),%esi
    1c98:	f7 34 24             	divl   (%esp)
    1c9b:	d3 e6                	shl    %cl,%esi
    1c9d:	89 74 24 08          	mov    %esi,0x8(%esp)
    1ca1:	89 d6                	mov    %edx,%esi
    1ca3:	f7 e7                	mul    %edi
    1ca5:	39 d6                	cmp    %edx,%esi
    1ca7:	89 c1                	mov    %eax,%ecx
    1ca9:	89 d7                	mov    %edx,%edi
    1cab:	72 47                	jb     1cf4 <__umoddi3+0x174>
    1cad:	39 44 24 08          	cmp    %eax,0x8(%esp)
    1cb1:	72 3d                	jb     1cf0 <__umoddi3+0x170>
    1cb3:	8b 44 24 08          	mov    0x8(%esp),%eax
    1cb7:	29 c8                	sub    %ecx,%eax
    1cb9:	19 fe                	sbb    %edi,%esi
    1cbb:	0f b6 4c 24 04       	movzbl 0x4(%esp),%ecx
    1cc0:	89 f2                	mov    %esi,%edx
    1cc2:	d3 e8                	shr    %cl,%eax
    1cc4:	89 e9                	mov    %ebp,%ecx
    1cc6:	d3 e2                	shl    %cl,%edx
    1cc8:	0f b6 4c 24 04       	movzbl 0x4(%esp),%ecx
    1ccd:	09 d0                	or     %edx,%eax
    1ccf:	89 f2                	mov    %esi,%edx
    1cd1:	d3 ea                	shr    %cl,%edx
    1cd3:	8b 74 24 10          	mov    0x10(%esp),%esi
    1cd7:	8b 7c 24 14          	mov    0x14(%esp),%edi
    1cdb:	8b 6c 24 18          	mov    0x18(%esp),%ebp
    1cdf:	83 c4 1c             	add    $0x1c,%esp
    1ce2:	c3                   	ret    
    1ce3:	8d b6 00 00 00 00    	lea    0x0(%esi),%esi
    1ce9:	8d bc 27 00 00 00 00 	lea    0x0(%edi,%eiz,1),%edi
    1cf0:	39 d6                	cmp    %edx,%esi
    1cf2:	75 bf                	jne    1cb3 <__umoddi3+0x133>
    1cf4:	89 d7                	mov    %edx,%edi
    1cf6:	89 c1                	mov    %eax,%ecx
    1cf8:	2b 4c 24 0c          	sub    0xc(%esp),%ecx
    1cfc:	1b 3c 24             	sbb    (%esp),%edi
    1cff:	eb b2                	jmp    1cb3 <__umoddi3+0x133>
    1d01:	eb 0d                	jmp    1d10 <__umoddi3+0x190>
    1d03:	90                   	nop
    1d04:	90                   	nop
    1d05:	90                   	nop
    1d06:	90                   	nop
    1d07:	90                   	nop
    1d08:	90                   	nop
    1d09:	90                   	nop
    1d0a:	90                   	nop
    1d0b:	90                   	nop
    1d0c:	90                   	nop
    1d0d:	90                   	nop
    1d0e:	90                   	nop
    1d0f:	90                   	nop
    1d10:	39 f5                	cmp    %esi,%ebp
    1d12:	0f 82 d1 fe ff ff    	jb     1be9 <__umoddi3+0x69>
    1d18:	e9 d8 fe ff ff       	jmp    1bf5 <__umoddi3+0x75>
    1d1d:	00 00                	add    %al,(%eax)
	...

00001d20 <_ZL3vfs>:
    1d20:	46 41 54 33 32 00 00 00 00 00 00 00 00 00 00 00     FAT32...........
	...
    1d40:	60 18 00 00 ec 1a 00 00 a8 1a 00 00 a0 19 00 00     `...............
    1d50:	58 19 00 00 64 1a 00 00 18 19 00 00 d8 18 00 00     X...d...........
    1d60:	e8 19 00 00 8c 18 00 00 00 00 00 00 00 00 00 00     ................
	...

00001d80 <_ZL3mod>:
    1d80:	66 73 5f 66 61 74 00 00 00 00 00 00 00 00 00 00     fs_fat..........
	...

00001de0 <_ZZL16fat32_file_writePvS_mP14fs_file_handleE19__PRETTY_FUNCTION__>:
    1de0:	6c 6f 6e 67 20 6c 6f 6e 67 20 69 6e 74 20 66 61     long long int fa
    1df0:	74 33 32 5f 66 69 6c 65 5f 77 72 69 74 65 28 76     t32_file_write(v
    1e00:	6f 69 64 2a 2c 20 76 6f 69 64 2a 2c 20 73 69 7a     oid*, void*, siz
    1e10:	65 5f 74 2c 20 66 73 5f 66 69 6c 65 5f 68 61 6e     e_t, fs_file_han
    1e20:	64 6c 65 5f 74 2a 29 00 00 00 00 00 00 00 00 00     dle_t*).........
	...

00001e40 <_ZZL17fat32_file_updatePvP7fs_fileE19__PRETTY_FUNCTION__>:
    1e40:	76 6f 69 64 20 66 61 74 33 32 5f 66 69 6c 65 5f     void fat32_file_
    1e50:	75 70 64 61 74 65 28 76 6f 69 64 2a 2c 20 66 73     update(void*, fs
    1e60:	5f 66 69 6c 65 5f 74 2a 29 00 00 00 00 00 00 00     _file_t*).......
	...

00001e80 <_ZZL16fat32_file_closePvP7fs_fileE19__PRETTY_FUNCTION__>:
    1e80:	76 6f 69 64 20 66 61 74 33 32 5f 66 69 6c 65 5f     void fat32_file_
    1e90:	63 6c 6f 73 65 28 76 6f 69 64 2a 2c 20 66 73 5f     close(void*, fs_
    1ea0:	66 69 6c 65 5f 74 2a 29 00 00 00 00                 file_t*)....

00001eac <_ZZL12fat32_unlinkPvPcE19__PRETTY_FUNCTION__>:
    1eac:	69 6e 74 20 66 61 74 33 32 5f 75 6e 6c 69 6e 6b     int fat32_unlink
    1ebc:	28 76 6f 69 64 2a 2c 20 63 68 61 72 2a 29 00 00     (void*, char*)..
	...

00001ee0 <_ZZL22fat32_create_directoryPvPcE19__PRETTY_FUNCTION__>:
    1ee0:	69 6e 74 20 66 61 74 33 32 5f 63 72 65 61 74 65     int fat32_create
    1ef0:	5f 64 69 72 65 63 74 6f 72 79 28 76 6f 69 64 2a     _directory(void*
    1f00:	2c 20 63 68 61 72 2a 29 00 2e 00 2e 2e 00 72 6f     , char*)......ro
    1f10:	6f 74 00 66 61 74 33 32 2e 63 70 70 00 65 6e 74     ot.fat32.cpp.ent
    1f20:	72 69 65 73 00 64 69 72 00 66 73 5f 66 61 74 3a     ries.dir.fs_fat:
    1f30:	20 45 72 72 6f 72 20 72 65 61 64 69 6e 67 20 42      Error reading B
    1f40:	50 42 3a 20 25 75 00 66 73 5f 66 61 74 3a 20 45     PB: %u.fs_fat: E
    1f50:	72 72 6f 72 20 72 65 61 64 69 6e 67 20 46 41 54     rror reading FAT
    1f60:	3a 20 25 75 00 66 73 5f 66 61 74 3a 20 56 6f 6c     : %u.fs_fat: Vol
    1f70:	75 6d 65 20 69 6e 69 74 69 61 6c 69 73 65 64 2e     ume initialised.
    1f80:	00 00 00 00 66 73 5f 66 61 74 3a 20 43 6f 75 6c     ....fs_fat: Coul
    1f90:	64 6e 27 74 20 72 65 61 64 20 73 65 63 74 6f 72     dn't read sector
    1fa0:	20 25 75 20 66 6f 72 20 46 41 54 00 66 73 5f 66      %u for FAT.fs_f
    1fb0:	61 74 3a 20 45 72 72 6f 72 20 72 65 61 64 69 6e     at: Error readin
    1fc0:	67 20 64 69 72 65 63 74 6f 72 79 20 66 69 6c 65     g directory file
    1fd0:	20 25 75 3a 20 25 75 00 66 73 5f 66 61 74 3a 20      %u: %u.fs_fat: 
    1fe0:	43 6f 75 6c 64 20 6e 6f 74 20 72 65 61 64 20 64     Could not read d
    1ff0:	69 72 65 63 74 6f 72 79 20 25 73 00 66 73 5f 66     irectory %s.fs_f
    2000:	61 74 3a 20 45 72 72 6f 72 20 72 65 61 64 69 6e     at: Error readin
    2010:	67 20 72 6f 6f 74 20 64 69 72 20 63 6c 75 73 74     g root dir clust
    2020:	65 72 20 25 75 3a 20 25 75 00 00 00 66 73 5f 66     er %u: %u...fs_f
    2030:	61 74 3a 20 43 6c 75 73 74 65 72 20 73 69 7a 65     at: Cluster size
    2040:	20 6f 66 20 25 75 20 62 79 74 65 73 00 00 00 00      of %u bytes....
    2050:	66 73 5f 66 61 74 3a 20 54 72 69 65 64 20 74 6f     fs_fat: Tried to
    2060:	20 69 6e 69 74 69 61 6c 69 73 65 20 46 41 54 31      initialise FAT1
    2070:	32 20 76 6f 6c 75 6d 65 20 61 73 20 46 41 54 33     2 volume as FAT3
    2080:	32 00 00 00 66 73 5f 66 61 74 3a 20 54 72 69 65     2...fs_fat: Trie
    2090:	64 20 74 6f 20 69 6e 69 74 69 61 6c 69 73 65 20     d to initialise 
    20a0:	46 41 54 31 36 20 76 6f 6c 75 6d 65 20 61 73 20     FAT16 volume as 
    20b0:	46 41 54 33 32 00 00 00 66 73 5f 66 61 74 3a 20     FAT32...fs_fat: 
    20c0:	45 72 72 6f 72 20 72 65 61 64 69 6e 67 20 46 53     Error reading FS
    20d0:	49 6e 66 6f 3a 20 25 75 00 00 00 00 66 73 5f 66     Info: %u....fs_f
    20e0:	61 74 3a 20 43 6f 72 72 75 70 74 65 64 20 46 53     at: Corrupted FS
    20f0:	49 6e 66 6f 3a 20 30 78 25 30 38 58 20 30 78 25     Info: 0x%08X 0x%
    2100:	30 38 58 20 30 78 25 30 38 58 00 00 66 73 5f 66     08X 0x%08X..fs_f
    2110:	61 74 3a 20 25 75 20 63 6c 75 73 74 65 72 73 2c     at: %u clusters,
    2120:	20 25 75 20 66 72 65 65 2c 20 73 74 61 72 74 20      %u free, start 
    2130:	73 65 61 72 63 68 20 61 74 20 25 75 00 00 00 00     search at %u....
    2140:	66 73 5f 66 61 74 3a 20 46 69 6c 65 73 79 73 74     fs_fat: Filesyst
    2150:	65 6d 20 6e 6f 74 20 63 6c 65 61 6e 6c 79 20 75     em not cleanly u
    2160:	6e 6d 6f 75 6e 74 65 64 20 61 66 74 65 72 20 6c     nmounted after l
    2170:	61 73 74 20 75 73 65 21 00 00 00 00 66 73 5f 66     ast use!....fs_f
    2180:	61 74 3a 20 43 6f 75 6c 64 6e 27 74 20 66 69 6e     at: Couldn't fin
    2190:	64 20 25 73 20 69 6e 20 25 73 00 00 66 73 5f 66     d %s in %s..fs_f
    21a0:	61 74 3a 20 43 6c 75 73 74 65 72 20 72 65 61 64     at: Cluster read
    21b0:	20 65 72 72 6f 72 3a 20 25 75 00 66 73 5f 66 61      error: %u.fs_fa
    21c0:	74 3a 20 25 73 20 75 6e 69 6d 70 6c 65 6d 65 6e     t: %s unimplemen
    21d0:	74 65 64 00                                         ted.
